CCS PCM C Compiler, Version 5.015, 5967               26-Feb-26 07:08

               Filename:   G:\My Drive\Duan\24clock\code\clock.lst

               ROM used:   3630 words (44%)
                           Largest free fragment is 2048
               RAM used:   110 (30%) at main() level
                           145 (39%) worst case
               Stack used: 5 locations (3 in main + 2 for interrupts)
               Stack size: 8

*
0000:  MOVLW  0D
0001:  MOVWF  0A
0002:  GOTO   5FF
0003:  NOP
0004:  MOVWF  7F
0005:  SWAPF  03,W
0006:  CLRF   03
0007:  MOVWF  21
0008:  MOVF   0A,W
0009:  MOVWF  20
000A:  CLRF   0A
000B:  MOVF   04,W
000C:  MOVWF  22
000D:  MOVF   77,W
000E:  MOVWF  23
000F:  MOVF   78,W
0010:  MOVWF  24
0011:  MOVF   79,W
0012:  MOVWF  25
0013:  MOVF   7A,W
0014:  MOVWF  26
0015:  BCF    03.7
0016:  BCF    03.5
0017:  MOVLW  8C
0018:  MOVWF  04
0019:  BTFSS  00.0
001A:  GOTO   01D
001B:  BTFSC  0C.0
001C:  GOTO   032
001D:  BTFSS  0B.5
001E:  GOTO   021
001F:  BTFSC  0B.2
0020:  GOTO   035
0021:  MOVF   22,W
0022:  MOVWF  04
0023:  MOVF   23,W
0024:  MOVWF  77
0025:  MOVF   24,W
0026:  MOVWF  78
0027:  MOVF   25,W
0028:  MOVWF  79
0029:  MOVF   26,W
002A:  MOVWF  7A
002B:  MOVF   20,W
002C:  MOVWF  0A
002D:  SWAPF  21,W
002E:  MOVWF  03
002F:  SWAPF  7F,F
0030:  SWAPF  7F,W
0031:  RETFIE
0032:  BCF    0A.3
0033:  BCF    0A.4
0034:  GOTO   109
0035:  BCF    0A.3
0036:  BCF    0A.4
0037:  GOTO   06E
.................... #include <16f887.h> 
.................... //////////// Standard Header file for the PIC16F887 device //////////////// 
.................... /////////////////////////////////////////////////////////////////////////// 
.................... ////        (C) Copyright 1996, 2013 Custom Computer Services          //// 
.................... //// This source code may only be used by licensed users of the CCS C  //// 
.................... //// compiler.  This source code may only be distributed to other      //// 
.................... //// licensed users of the CCS C compiler.  No other use, reproduction //// 
.................... //// or distribution is permitted without written permission.          //// 
.................... //// Derivative programs created using this software in object code    //// 
.................... //// form are not restricted in any way.                               //// 
.................... /////////////////////////////////////////////////////////////////////////// 
.................... #device PIC16F887 
0038:  BCF    0A.0
0039:  BCF    0A.1
003A:  BCF    0A.2
003B:  ADDWF  02,F
003C:  RETLW  C0
003D:  RETLW  F9
003E:  RETLW  A4
003F:  RETLW  B0
0040:  RETLW  99
0041:  RETLW  92
0042:  RETLW  82
0043:  RETLW  F8
0044:  RETLW  80
0045:  RETLW  90
0046:  BCF    0A.0
0047:  BCF    0A.1
0048:  BCF    0A.2
0049:  ADDWF  02,F
004A:  RETLW  01
004B:  RETLW  02
004C:  RETLW  04
004D:  RETLW  08
004E:  RETLW  10
004F:  RETLW  20
0050:  RETLW  40
0051:  RETLW  80
0052:  RETLW  01
0053:  RETLW  02
0054:  RETLW  04
0055:  RETLW  08
0056:  RETLW  10
0057:  RETLW  20
0058:  RETLW  40
0059:  RETLW  80
005A:  BCF    0A.0
005B:  BCF    0A.1
005C:  BCF    0A.2
005D:  ADDWF  02,F
005E:  RETLW  FF
005F:  RETLW  FF
0060:  RETLW  FF
0061:  RETLW  FF
0062:  RETLW  FF
0063:  RETLW  FF
0064:  RETLW  FF
0065:  RETLW  FF
0066:  RETLW  FF
0067:  RETLW  FF
0068:  RETLW  FF
0069:  RETLW  FF
006A:  RETLW  FF
006B:  RETLW  FF
006C:  RETLW  FF
006D:  RETLW  FF
*
0556:  CLRF   77
0557:  CLRF   78
0558:  BSF    03.5
0559:  MOVF   58,W
055A:  BCF    03.0
055B:  BTFSC  59.0
055C:  ADDWF  77,F
055D:  RRF    77,F
055E:  RRF    78,F
055F:  BTFSC  59.1
0560:  ADDWF  77,F
0561:  RRF    77,F
0562:  RRF    78,F
0563:  BTFSC  59.2
0564:  ADDWF  77,F
0565:  RRF    77,F
0566:  RRF    78,F
0567:  BTFSC  59.3
0568:  ADDWF  77,F
0569:  RRF    77,F
056A:  RRF    78,F
056B:  BTFSC  59.4
056C:  ADDWF  77,F
056D:  RRF    77,F
056E:  RRF    78,F
056F:  BTFSC  59.5
0570:  ADDWF  77,F
0571:  RRF    77,F
0572:  RRF    78,F
0573:  BTFSC  59.6
0574:  ADDWF  77,F
0575:  RRF    77,F
0576:  RRF    78,F
0577:  BTFSC  59.7
0578:  ADDWF  77,F
0579:  RRF    77,F
057A:  RRF    78,F
057B:  BCF    03.5
057C:  RETURN
*
0602:  BSF    03.5
0603:  MOVF   58,W
0604:  CLRF   78
0605:  SUBWF  57,W
0606:  BTFSC  03.0
0607:  GOTO   60B
0608:  MOVF   57,W
0609:  MOVWF  77
060A:  GOTO   617
060B:  CLRF   77
060C:  MOVLW  08
060D:  MOVWF  59
060E:  RLF    57,F
060F:  RLF    77,F
0610:  MOVF   58,W
0611:  SUBWF  77,W
0612:  BTFSC  03.0
0613:  MOVWF  77
0614:  RLF    78,F
0615:  DECFSZ 59,F
0616:  GOTO   60E
0617:  BCF    03.5
0618:  RETURN
....................  
.................... #list 
....................  
.................... #include <stdlib.h> 
.................... /////////////////////////////////////////////////////////////////////////// 
.................... ////        (C) Copyright 1996,2007 Custom Computer Services           //// 
.................... //// This source code may only be used by licensed users of the CCS C  //// 
.................... //// compiler.  This source code may only be distributed to other      //// 
.................... //// licensed users of the CCS C compiler.  No other use, reproduction //// 
.................... //// or distribution is permitted without written permission.          //// 
.................... //// Derivative programs created using this software in object code    //// 
.................... //// form are not restricted in any way.                               //// 
.................... /////////////////////////////////////////////////////////////////////////// 
....................  
.................... #ifndef _STDLIB 
.................... #define _STDLIB 
....................  
.................... //--------------------------------------------------------------------------- 
.................... // Definitions and types 
.................... //--------------------------------------------------------------------------- 
....................  
.................... #ifndef RAND_MAX 
.................... #define RAND_MAX  32767    // The value of which is the maximum value 
....................                            // ... returned by the rand function 
.................... #endif 
....................  
....................  
.................... #IF (sizeof(int16*)>1) 
.................... #DEFINE LONG_POINTERS 1 
.................... #ELSE  
.................... #DEFINE LONG_POINTERS 0 
.................... #ENDIF 
....................  
.................... typedef struct { 
....................    signed int quot; 
....................    signed int rem; 
.................... } div_t; 
....................  
.................... typedef struct { 
....................    signed long quot; 
....................    signed long rem; 
.................... } ldiv_t; 
....................  
.................... #include <stddef.h> 
.................... /////////////////////////////////////////////////////////////////////////// 
.................... ////        (C) Copyright 1996,2003 Custom Computer Services           //// 
.................... //// This source code may only be used by licensed users of the CCS C  //// 
.................... //// compiler.  This source code may only be distributed to other      //// 
.................... //// licensed users of the CCS C compiler.  No other use, reproduction //// 
.................... //// or distribution is permitted without written permission.          //// 
.................... //// Derivative programs created using this software in object code    //// 
.................... //// form are not restricted in any way.                               //// 
.................... /////////////////////////////////////////////////////////////////////////// 
....................  
.................... #ifndef _STDDEF 
....................  
.................... #define _STDDEF 
....................  
.................... #if sizeof(unsigned int8 *)==1 
.................... #define ptrdiff_t unsigned int8 
.................... #else 
.................... #define ptrdiff_t unsigned int16 
.................... #endif 
....................  
.................... #if defined(__PCB__) 
.................... #define size_t unsigned int8 
.................... #else 
.................... #define size_t unsigned int16 
.................... #endif 
.................... #define wchar_t char 
.................... #define NULL 0 
....................  
.................... #define offsetof(s,f) (offsetofbit(s,f)/8) 
....................  
.................... #endif 
....................  
....................  
.................... //--------------------------------------------------------------------------- 
.................... // String conversion functions 
.................... //--------------------------------------------------------------------------- 
....................  
.................... /* Standard template: signed int  atoi(char * s) 
....................  * converts the initial portion of the string s to a signed int 
....................  * returns the converted value if any, 0 otherwise 
....................  */ 
.................... signed int atoi(char *s); 
....................  
.................... /* Syntax: signed int32  atoi32(char * s) 
....................    converts the initial portion of the string s to a signed int32 
....................    returns the converted value if any, 0 otherwise*/ 
.................... #if (sizeof(long)==4) 
....................  #define atoi32(s) atol(s) 
.................... #else  
....................  signed int32 atoi32(char *s); 
.................... #endif 
....................  
.................... #if defined(__PCD__) 
.................... // The following functions only work on the 24 bit compiler 
.................... // for the 30F, 33F, 24F and 24H parts 
.................... /* Syntax: signed int48  atoi48(char * s) 
....................    converts the initial portion of the string s to a signed int48 
....................    returns the converted value if any, 0 otherwise*/ 
....................     
.................... signed int48 atoi48(char *s); 
....................  
.................... /* Syntax: signed int64  atoi64(char * s) 
....................    converts the initial portion of the string s to a signed int64 
....................    returns the converted value if any, 0 otherwise*/ 
.................... signed int64 atoi64(char *s); 
.................... #endif 
....................  
.................... /* Syntax: char *  itoa(signed int32 num, int8 base, char * s) 
....................    converts the signed int32 to a string and 
....................    returns the converted value if any, 0 otherwise*/ 
.................... char * itoa(signed int32 num, unsigned int base, char * s); 
....................  
.................... /* Standard template: signed int16  atol(char * s) 
....................  * converts the initial portion of the string s to a signed int16 
....................  * returns the converted value if any, 0 otherwise 
....................  */ 
.................... signed long atol(char *s); 
....................  
.................... /* Standard template: int16 strtoul(char * s,char *endptr,signed int base) 
....................  * converts the initial portion of the string s, represented as an 
....................  * integral value of radix base  to a signed long. 
....................  * Returns the converted value if any, 0 otherwise 
....................  * the final string is returned in the endptr, if endptr is not null 
....................  */ 
.................... signed long strtol(char *s,char *endptr, signed int base); 
....................  
.................... /* Standard template: int16 strtoul(char * s,char *endptr,signed int base) 
....................  * converts the initial portion of the string s, represented as an 
....................  * integral value of radix base to a unsigned long. 
....................  * returns the converted value if any, 0 otherwise 
....................  * the final string is returned in the endptr, if endptr is not null 
....................  */ 
.................... unsigned long strtoul(char *s,char *endptr, signed int base); 
....................  
.................... /* Standart template: float strtof(char * s,char *endptr) 
....................                       float48 strtof48(char *s,char *endptr); 
....................                       float64 strtod(char *s,char *endptr); 
....................  * converts the initial portion of the string s to a float32, float48 or float64, 
....................  * returns the converted value if any, 0 otherwise 
....................  * the final string is returned in the endptr, if endptr is not null                    
.................... */ 
.................... float strtof(char *s,char *endptr); 
.................... #if defined(__PCD__) 
.................... float48 strtof48(char *s,char *endptr); 
.................... float64 strtod(char *s,char *endptr); 
.................... #else 
.................... //provided for compatibility 
.................... #define strtof48(s, e) strtof(s, e) 
.................... #define strtod(s, e) strtof(s, e) 
.................... #endif 
....................  
.................... /* Standard template: float32 atof(char * s) 
....................  * converts the initial portion of the string s to a float. 
....................  * returns the converted value if any, 0 otherwise 
....................  */ 
.................... #define atof(s)   strtof(s, 0) 
....................  
.................... #if defined(__PCD__) 
.................... // The following functions only work on the 24 bit compiler 
.................... // for the 30F, 33F, 24F and 24H parts 
....................  
.................... /* Standard template: float48 atof48(char * s) 
....................  * converts the initial portion of the string s to a float. 
....................  * returns the converted value if any, 0 otherwise 
....................  */ 
.................... #define atof48(s) strtof48(s, 0) 
....................  
.................... /* Standard template: float64 atof64(char * s) 
....................  * converts the initial portion of the string s to a float. 
....................  * returns the converted value if any, 0 otherwise 
....................  */ 
.................... #define atof64(s) strtod(s, 0) 
.................... #endif 
....................  
.................... /* Standard template: float32 atoe(char * s) 
....................  * converts the initial portion of the string s to a float. 
....................  * returns the converted value if any, 0 otherwise 
....................  * also handles E format numbers 
....................  */ 
.................... #if !defined(__PCD__) 
.................... float atoe(char * s); 
.................... #endif 
....................  
.................... #if defined(__PCD__) 
.................... float32 atoe(char * s); 
.................... #endif 
....................  
.................... //--------------------------------------------------------------------------- 
.................... // Pseudo-random sequence generation functions 
.................... //--------------------------------------------------------------------------- 
....................  
.................... /* The rand function computes a sequence of pseudo-random integers in 
....................  * the range 0 to RAND_MAX 
....................  * 
....................  * Parameters: 
....................  *       (none) 
....................  * 
....................  * Returns: 
....................  *       The pseudo-random integer 
....................  */ 
.................... unsigned int16 rand(void); 
....................  
.................... /* The srand function uses the argument as a seed for a new sequence of 
....................  * pseudo-random numbers to be returned by subsequent calls to rand. 
....................  * 
....................  * Parameters: 
....................  *       [in] seed: The seed value to start from. You might need to pass 
....................  * 
....................  * Returns: 
....................  *       (none) 
....................  * 
....................  * Remarks 
....................  *          The srand function sets the starting point for generating 
....................  *       a series of pseudorandom integers. To reinitialize the 
....................  *       generator, use 1 as the seed argument. Any other value for 
....................  *       seed sets the generator to a random starting point. rand 
....................  *       retrieves the pseudorandom numbers that are generated. 
....................  *       Calling rand before any call to srand generates the same 
....................  *       sequence as calling srand with seed passed as 1. 
....................  *          Usually, you need to pass a time here from outer source 
....................  *       so that the numbers will be different every time you run. 
....................  */ 
.................... void srand(unsigned int32 seed); 
....................  
.................... //--------------------------------------------------------------------------- 
.................... // Memory management functions 
.................... //--------------------------------------------------------------------------- 
....................  
.................... // Comming soon 
....................  
.................... //--------------------------------------------------------------------------- 
.................... // Communication with the environment 
.................... //--------------------------------------------------------------------------- 
....................  
.................... /* The function returns 0 always 
....................  */ 
.................... signed int8 system(char *string); 
....................  
.................... //--------------------------------------------------------------------------- 
.................... // Searching and sorting utilities 
.................... //--------------------------------------------------------------------------- 
....................  
.................... /* Performs a binary search of a sorted array.. 
....................  * 
....................  * Parameters: 
....................  *       [in] key: Object to search for 
....................  *       [in] base: Pointer to base of search data 
....................  *       [in] num: Number of elements 
....................  *       [in] width: Width of elements 
....................  *       [in] compare: Function that compares two elements 
....................  * 
....................  * Returns: 
....................  *       bsearch returns a pointer to an occurrence of key in the array pointed 
....................  *       to by base. If key is not found, the function returns NULL. If the 
....................  *       array is not in order or contains duplicate records with identical keys, 
....................  *       the result is unpredictable. 
....................  */ 
.................... //void *bsearch(const void *key, const void *base, size_t num, size_t width, 
.................... //              int (*compare)(const void *, const void *)); 
....................  
.................... /* Performs the shell-metzner sort (not the quick sort algorithm). The contents 
....................  * of the array are sorted into ascending order according to a comparison 
....................  * function pointed to by compar. 
....................  * 
....................  * Parameters: 
....................  *       [in] base: Pointer to base of search data 
....................  *       [in] num: Number of elements 
....................  *       [in] width: Width of elements 
....................  *       [in] compare: Function that compares two elements 
....................  * 
....................  * Returns: 
....................  *       (none) 
....................  */ 
.................... //void *qsort(const void *base, size_t num, size_t width, 
.................... //              int (*compare)(const void *, const void *)); 
....................  
.................... //--------------------------------------------------------------------------- 
.................... // Integer arithmetic functions 
.................... //--------------------------------------------------------------------------- 
....................  
.................... #define labs abs 
....................  
.................... div_t div(signed int numer, signed int denom); 
.................... ldiv_t ldiv(signed long numer, signed long denom); 
....................  
.................... //--------------------------------------------------------------------------- 
.................... // Multibyte character functions 
.................... //--------------------------------------------------------------------------- 
....................  
.................... // Not supported 
....................  
.................... //--------------------------------------------------------------------------- 
.................... // Multibyte string functions 
.................... //--------------------------------------------------------------------------- 
....................  
.................... // Not supported 
....................  
....................  
.................... //--------------------------------------------------------------------------- 
.................... // Internal implementation 
.................... //--------------------------------------------------------------------------- 
....................  
.................... #include <stddef.h> 
.................... /////////////////////////////////////////////////////////////////////////// 
.................... ////        (C) Copyright 1996,2003 Custom Computer Services           //// 
.................... //// This source code may only be used by licensed users of the CCS C  //// 
.................... //// compiler.  This source code may only be distributed to other      //// 
.................... //// licensed users of the CCS C compiler.  No other use, reproduction //// 
.................... //// or distribution is permitted without written permission.          //// 
.................... //// Derivative programs created using this software in object code    //// 
.................... //// form are not restricted in any way.                               //// 
.................... /////////////////////////////////////////////////////////////////////////// 
....................  
.................... #ifndef _STDDEF 
....................  
.................... #define _STDDEF 
....................  
.................... #if sizeof(unsigned int8 *)==1 
.................... #define ptrdiff_t unsigned int8 
.................... #else 
.................... #define ptrdiff_t unsigned int16 
.................... #endif 
....................  
.................... #if defined(__PCB__) 
.................... #define size_t unsigned int8 
.................... #else 
.................... #define size_t unsigned int16 
.................... #endif 
.................... #define wchar_t char 
.................... #define NULL 0 
....................  
.................... #define offsetof(s,f) (offsetofbit(s,f)/8) 
....................  
.................... #endif 
....................  
.................... #include <string.h> 
.................... //////////////////////////////////////////////////////////////////////////// 
.................... ////        (C) Copyright 1996,2008 Custom Computer Services            //// 
.................... //// This source code may only be used by licensed users of the CCS C   //// 
.................... //// compiler.  This source code may only be distributed to other       //// 
.................... //// licensed users of the CCS C compiler.  No other use, reproduction  //// 
.................... //// or distribution is permitted without written permission.           //// 
.................... //// Derivative programs created using this software in object code     //// 
.................... //// form are not restricted in any way.                                //// 
.................... //////////////////////////////////////////////////////////////////////////// 
....................  
.................... #ifndef _STRING 
.................... #define _STRING 
.................... #include <stddef.h> 
.................... /////////////////////////////////////////////////////////////////////////// 
.................... ////        (C) Copyright 1996,2003 Custom Computer Services           //// 
.................... //// This source code may only be used by licensed users of the CCS C  //// 
.................... //// compiler.  This source code may only be distributed to other      //// 
.................... //// licensed users of the CCS C compiler.  No other use, reproduction //// 
.................... //// or distribution is permitted without written permission.          //// 
.................... //// Derivative programs created using this software in object code    //// 
.................... //// form are not restricted in any way.                               //// 
.................... /////////////////////////////////////////////////////////////////////////// 
....................  
.................... #ifndef _STDDEF 
....................  
.................... #define _STDDEF 
....................  
.................... #if sizeof(unsigned int8 *)==1 
.................... #define ptrdiff_t unsigned int8 
.................... #else 
.................... #define ptrdiff_t unsigned int16 
.................... #endif 
....................  
.................... #if defined(__PCB__) 
.................... #define size_t unsigned int8 
.................... #else 
.................... #define size_t unsigned int16 
.................... #endif 
.................... #define wchar_t char 
.................... #define NULL 0 
....................  
.................... #define offsetof(s,f) (offsetofbit(s,f)/8) 
....................  
.................... #endif 
....................  
.................... #include <ctype.h> 
.................... //////////////////////////////////////////////////////////////////////////// 
.................... ////        (C) Copyright 1996,2003 Custom Computer Services            //// 
.................... //// This source code may only be used by licensed users of the CCS C   //// 
.................... //// compiler.  This source code may only be distributed to other       //// 
.................... //// licensed users of the CCS C compiler.  No other use, reproduction  //// 
.................... //// or distribution is permitted without written permission.           //// 
.................... //// Derivative programs created using this software in object code     //// 
.................... //// form are not restricted in any way.                                //// 
.................... //////////////////////////////////////////////////////////////////////////// 
....................  
.................... #ifndef _CTYPE 
.................... #define _CTYPE 
....................  
.................... #define islower(x)  isamong(x,"abcdefghijklmnopqrstuvwxyz") 
.................... #define isupper(x)  isamong(x,"ABCDEFGHIJKLMNOPQRSTUVWXYZ") 
.................... #define isalnum(x)  isamong(x,"0123456789ABCDEFGHIJKLMNOPQRSTUVWXYZabcdefghijklmnopqrstuvwxyz") 
.................... #define isalpha(x)  isamong(x,"ABCDEFGHIJKLMNOPQRSTUVWXYZabcdefghijklmnopqrstuvwxyz") 
.................... #define isdigit(x)  isamong(x,"0123456789") 
.................... #define isspace(x)  ((x)==' ') 
.................... #define isxdigit(x) isamong(x,"0123456789ABCDEFabcdef") 
.................... #define iscntrl(x)  ((x)<' ') 
.................... #define isprint(x)  ((x)>=' ') 
.................... #define isgraph(x)  ((x)>' ') 
.................... #define ispunct(x)  (((x)>' ')&&!isalnum(x)) 
....................  
.................... #endif 
....................  
....................  
....................  
....................  
....................  
.................... ////////////////////////////////////////////// 
.................... //// Uncomment the following define to    //// 
.................... //// allow some functions to use a        //// 
.................... //// quicker algorithm, but use more ROM  //// 
.................... ////                                      //// 
.................... //// #define FASTER_BUT_MORE_ROM          //// 
.................... ////////////////////////////////////////////// 
....................  
....................  
....................  
.................... /*Copying functions*/ 
.................... /* standard template: 
....................    void *memmove(void *s1, void *s2, size_t n). 
....................    Copies max of n characters safely (not following ending '\0') 
....................    from s2 in s1; if s2 has less than n characters, appends 0 */ 
....................  
.................... char *memmove(void *s1,char *s2,size_t n) 
.................... { 
....................    char *sc1; 
....................    char *sc2; 
....................    sc1=s1; 
....................    sc2=s2; 
....................    if(sc2<sc1 && sc1 <sc2 +n) 
....................       for(sc1+=n,sc2+=n;0<n;--n) 
....................          *--sc1=*--sc2; 
....................    else 
....................       for(;0<n;--n) 
....................          *sc1++=*sc2++; 
....................   return s1; 
....................   } 
....................  
.................... /* Standard template: char *strcpy(char *s1, const char *s2) 
....................    copies the string s2 including the null character to s1. 
....................    This is a compiler built in to handle the different address 
....................    spaces */ 
....................  
.................... #define strcopy strcpy 
....................  
.................... /* standard template: 
....................    char *strncpy(char *s1, const char *s2, size_t n). 
....................    Copies max of n characters (not following ending '\0') 
....................    from s2 in s1; if s2 has less than n characters, appends 0 */ 
....................  
.................... char *strncpy(char *s1, char *s2, size_t n) 
.................... { 
....................   char *s; 
....................  
....................   for (s = s1; n > 0 && *s2 != '\0'; n--) 
....................      *s++ = *s2++; 
....................   for (; n > 0; n--) 
....................      *s++ = '\0'; 
....................  
....................   return(s1); 
.................... } 
.................... /***********************************************************/ 
....................  
.................... /*concatenation functions*/ 
.................... /* standard template: char *strcat(char *s1, const char *s2) 
.................... appends s2 to s1*/ 
....................  
.................... char *strcat(char *s1, char *s2) 
.................... { 
....................    char *s; 
....................  
....................    for (s = s1; *s != '\0'; ++s); 
....................    while(*s2 != '\0') 
....................    { 
....................       *s = *s2; 
....................       ++s; 
....................       ++s2; 
....................    } 
....................  
....................    *s = '\0'; 
....................    return(s1); 
.................... } 
.................... /* standard template: char *strncat(char *s1, char *s2,size_t n) 
.................... appends not more than n characters from s2 to s1*/ 
....................  
.................... char *strncat(char *s1, char *s2, size_t n) 
.................... { 
....................    char *s; 
....................  
....................    for (s = s1; *s != '\0'; ++s); 
....................    while(*s2 != '\0' && 0<n) 
....................    { 
....................       *s = *s2; 
....................       ++s; 
....................       ++s2; 
....................       --n; 
....................    } 
....................  
....................    *s = '\0'; 
....................    return(s1); 
.................... } 
....................  
.................... /***********************************************************/ 
....................  
....................  
.................... /*comparison functions*/ 
.................... /* standard template: signed int memcmp(void *s1, void *s2). 
....................    Compares s1 & s2; returns -1 if s1<s2, 0 if s1=s2, 1 if s1>s2 */ 
....................  
.................... signed int8 memcmp(void * s1,char *s2,size_t n) 
.................... { 
.................... char *su1, *su2; 
.................... for(su1=s1, su2=s2; 0<n; ++su1, ++su2, --n) 
.................... { 
....................    if(*su1!=*su2) 
....................       return ((*su1<*su2)?-1:+1); 
.................... } 
.................... return 0; 
.................... } 
....................  
.................... /* standard template: int strcmp(const char *s1, const char *s2). 
....................    Compares s1 & s2; returns -1 if s1<s2, 0 if s1=s2, 1 if s1>s2 */ 
....................  
.................... signed int8 strcmp(char *s1, char *s2) 
.................... { 
....................    for (; *s1 == *s2; s1++, s2++) 
....................       if (*s1 == '\0') 
....................          return(0); 
....................    return((*s1 < *s2) ? -1: 1); 
.................... } 
.................... /* standard template: int strcoll(const char *s1, const char *s2). 
....................    Compares s1 & s2; returns -1 if s1<s2, 0 if s1=s2, 1 if s1>s2 */ 
....................  
.................... signed int8 strcoll(char *s1, char *s2) 
.................... { 
....................    for (; *s1 == *s2; s1++, s2++) 
....................       if (*s1 == '\0') 
....................          return(0); 
....................    return((*s1 < *s2) ? -1: 1); 
.................... } 
....................  
.................... /* standard template: 
....................    int strncmp(const char *s1, const char *s2, size_t n). 
....................    Compares max of n characters (not following 0) from s1 to s2; 
....................    returns same as strcmp */ 
....................  
.................... signed int8 strncmp(char *s1, char *s2, size_t n) 
.................... { 
....................    for (; n > 0; s1++, s2++, n--) 
....................       if (*s1 != *s2) 
....................          return((*s1 <*s2) ? -1: 1); 
....................       else if (*s1 == '\0') 
....................          return(0); 
....................    return(0); 
.................... } 
.................... /* standard template: 
....................    int strxfrm(const char *s1, const char *s2, size_t n). 
....................    transforms maximum of n characters from s2 and places them into s1*/ 
.................... size_t strxfrm(char *s1, char *s2, size_t n) 
.................... { 
....................   char *s; 
....................   unsigned int8 n1; 
....................   n1=n; 
....................   for (s = s1; n > 0 && *s2 != '\0'; n--) 
....................      *s++ = *s2++; 
....................   for (; n > 0; n--) 
....................      *s++ = '\0'; 
....................  
....................   return(n1); 
.................... } 
....................  
....................  
....................  
....................  
....................  
.................... /***********************************************************/ 
.................... /*Search functions*/ 
.................... /* standard template: void *memchr(const char *s, int c). 
....................    Finds first occurrence of c in n characters of s */ 
....................  
.................... char *memchr(void *s,unsigned int8 c,size_t n) 
.................... { 
....................    char uc; 
....................    char *su; 
....................    uc=c; 
....................    for(su=s;0<n;++su,--n) 
....................       if(*su==uc) 
....................       return su; 
....................    return NULL; 
.................... } 
....................  
.................... /* standard template: char *strchr(const char *s, int c). 
....................    Finds first occurrence of c in s */ 
....................  
.................... char *strchr(char *s, unsigned int8 c) 
.................... { 
....................    for (; *s != c; s++) 
....................       if (*s == '\0') 
....................          return(0); 
....................    return(s); 
.................... } 
.................... /* standard template: 
....................    size_t strcspn(const char *s1, const char *s2). 
....................    Computes length of max initial segment of s1 that 
....................    consists entirely of characters NOT from s2*/ 
....................  
.................... unsigned int8  strcspn(char *s1, char *s2) 
.................... { 
....................    char *sc1, *sc2; 
....................  
....................    for (sc1 = s1; *sc1 != 0; sc1++) 
....................       for (sc2 = s2; *sc2 != 0; sc2++) 
....................          if (*sc1 == *sc2) 
....................             return(sc1 - s1); 
....................    return(sc1 - s1); 
.................... } 
.................... /* standard template: 
....................    char *strpbrk(const char *s1, const char *s2). 
....................    Locates first occurence of any character from s2 in s1; 
....................    returns s1 if s2 is empty string */ 
....................  
.................... char *strpbrk(char *s1, char *s2) 
.................... { 
....................    char *sc1, *sc2; 
....................  
....................    for (sc1 = s1; *sc1 != 0; sc1++) 
....................       for (sc2 = s2; *sc2 != 0; sc2++) 
....................          if (*sc1 == *sc2) 
....................             return(sc1); 
....................    return(0); 
.................... } 
....................  
....................  
.................... /* standard template: char *strrchr(const char *s, int c). 
....................    Finds last occurrence of c in s */ 
....................  
.................... char *strrchr(char *s, unsigned int8 c) 
.................... { 
....................    char *p; 
....................  
....................    for (p = 0; ; s++) 
....................    { 
....................       if (*s == c) 
....................          p = s; 
....................       if (*s == '\0') 
....................          return(p); 
....................    } 
.................... } 
.................... /* computes length of max initial segment of s1 consisting 
....................    entirely of characters from s2 */ 
....................  
.................... unsigned int8  strspn(char *s1, char *s2) 
.................... { 
....................    char *sc1, *sc2; 
....................  
....................    for (sc1 = s1; *sc1 != 0; sc1++) 
....................       for (sc2 = s2; ; sc2++) 
....................     if (*sc2 == '\0') 
....................        return(sc1 - s1); 
....................          else if (*sc1 == *sc2) 
....................             break; 
....................    return(sc1 - s1); 
.................... } 
.................... /* standard template: 
....................    char *strstr(const char *s1, const char *s2); 
....................    Locates first occurence of character sequence s2 in s1; 
....................    returns 0 if s2 is empty string 
....................  
....................    Uncomment #define FASTER_BUT_MORE_ROM at the top of the 
....................    file to use the faster algorithm */ 
.................... char *strstr(char *s1, char *s2) 
.................... { 
....................    char *s, *t; 
....................  
....................    #ifdef FASTER_BUT_MORE_ROM 
....................    if (*s2 == '\0') 
....................          return(s1); 
....................    #endif 
....................  
....................    while (*s1) 
....................    { 
....................       for(s = s1, t = s2; *t && (*s == *t); ++s, ++t); 
....................  
....................       if (*t == '\0') 
....................          return s1; 
....................       ++s1; 
....................       #ifdef FASTER_BUT_MORE_ROM 
....................          while(*s1 != '\0' && *s1 != *s2) 
....................             ++s1; 
....................       #endif 
....................    } 
....................    return 0; 
.................... } 
....................  
.................... /* standard template: char *strtok(char *s1, const char *s2). 
....................  
....................    Finds next token in s1 delimited by a character from separator 
....................    string s2 (which can be different from call to call).  First call 
....................    starts at beginning of s1 searching for first character NOT 
....................    contained in s2; returns 0 if none is found. 
....................    If one is found, it is the start of first token (return value). 
....................    Function then searches from there for a character contained in s2. 
....................    If none is found, current token extends to end of s1, and subsequent 
....................    searches for a token will return 0.  If one is found, it is 
....................    overwritten by '\0', which terminates current token.  Function saves 
....................    pointer to following character from which next search will start. 
....................    Each subsequent call, with 0 as first argument, starts searching 
....................    from saved pointer */ 
....................  
.................... char *strtok(char *s1, char *s2) 
.................... { 
....................    char *beg, *end; 
....................    static char *save; 
*
0E32:  BCF    03.6
0E33:  CLRF   27
0E34:  CLRF   28
....................  
....................    beg = (s1)? s1: save; 
....................    beg += strspn(beg, s2); 
....................    if (*beg == '\0') 
....................    { 
....................       *save = ' '; 
....................       return(0); 
....................    } 
....................    end = strpbrk(beg, s2); 
....................    if (*end != '\0') 
....................    { 
....................       *end = '\0'; 
....................       end++; 
....................    } 
....................    save = end; 
....................    return(beg); 
.................... } 
....................  
.................... /*****************************************************************/ 
.................... /*Miscellaneous functions*/ 
.................... /* standard template 
.................... maps error number in errnum to an error message string 
.................... Returns: Pointer to string 
.................... */ 
.................... #ifdef _ERRNO 
.................... char * strerror(unsigned int8 errnum) 
.................... { 
.................... static char s[13]; 
.................... switch( errnum) 
.................... { 
.................... case 0: 
....................    strcpy(s,"no errors"); 
....................    return s; 
.................... case EDOM : 
....................    strcpy(s,"domain error"); 
....................    return s; 
.................... case ERANGE: 
....................    strcpy(s,"range error"); 
....................    return s; 
.................... } 
.................... } 
.................... #ENDIF 
.................... /* standard template: size_t strlen(const char *s). 
....................    Computes length of s1 (preceding terminating 0) */ 
....................  
.................... unsigned int8 strlen(char *s) 
.................... { 
....................    char *sc; 
....................  
....................    for (sc = s; *sc != 0; sc++); 
....................    return(sc - s); 
.................... } 
....................  
.................... /* standard template: size_t stricmp(const char *s1, const char *s2). 
....................    Compares s1 to s2 ignoring case (upper vs. lower) */ 
....................  
.................... signed int8 stricmp(char *s1, char *s2) 
.................... { 
....................  for(; *s1==*s2||(isalpha(*s1)&&isalpha(*s2)&&(*s1==*s2+32||*s2==*s1+32)); 
....................     s1++, s2++) 
....................     if (*s1 == '\0') 
....................        return(0); 
....................  return((*s1 < *s2) ? -1: 1); 
.................... } 
....................  
....................  
.................... /* standard template: char *strlwr(char *s). 
....................    Replaces uppercase letters by lowercase; 
....................    returns pointer to new string s */ 
....................  
.................... char *strlwr(char *s) 
.................... { 
....................    char *p; 
....................  
....................    for (p = s; *p != '\0'; p++) 
....................       if (*p >= 'A' && *p <='Z') 
....................          *p += 'a' - 'A'; 
....................    return(s); 
.................... } 
....................  
.................... /* standard template: char *strupr(char *s). 
....................    Replaces lowercase letters by upercase; 
....................    returns pointer to new string s */ 
....................  
.................... char *strupr(char *s) 
.................... { 
....................    char *p; 
....................  
....................    for (p = s; *p != '\0'; p++) 
....................       if (*p >= 'a' && *p <='z') 
....................          *p -= 'a' - 'A'; 
....................    return(s); 
.................... } 
....................  
....................  
.................... /************************************************************/ 
....................  
....................  
.................... #endif 
....................  
....................  
.................... div_t div(signed int numer, signed int denom) 
.................... { 
....................    div_t val; 
....................    val.quot = numer / denom; 
....................    val.rem = numer - (denom * val.quot); 
....................    return (val); 
.................... } 
....................  
.................... ldiv_t ldiv(signed long numer, signed long denom) 
.................... { 
....................    ldiv_t val; 
....................  
....................    val.quot = numer / denom; 
....................    val.rem = numer - (denom * val.quot); 
....................    return (val); 
.................... } 
....................  
.................... #if defined(__PCD__) 
.................... float32 atoe(char * s) 
.................... { 
....................    float32 pow10 = 1.0; 
....................    float32 result = 0.0; 
....................    unsigned int8 sign = 0; 
....................    unsigned int8 expsign = 0; 
....................    char c; 
....................    unsigned int8 ptr = 0; 
....................    unsigned int8 i; 
....................    float32 exp = 1.0; 
....................    unsigned int8 expcnt = 0; 
....................  
....................    c = s[ptr++]; 
....................  
....................    if ((c>='0' && c<='9') || c=='+' || c=='-' || c=='.' || c=='E' || c=='e') { 
....................       if(c == '-') { 
....................          sign = 1; 
....................          c = s[ptr++]; 
....................       } 
....................       if(c == '+') 
....................          c = s[ptr++]; 
....................  
....................       while((c >= '0' && c <= '9')) { 
....................          result = 10*result + c - '0'; 
....................          c = s[ptr++]; 
....................       } 
....................  
....................       if (c == '.') { 
....................          c = s[ptr++]; 
....................          while((c >= '0' && c <= '9')) { 
....................              pow10 = pow10*10; 
....................              result += (c - '0')/pow10; 
....................              c = s[ptr++]; 
....................          } 
....................       } 
....................  
....................       // Handling the exponent 
....................       if (c=='e' || c=='E') { 
....................          c = s[ptr++]; 
....................  
....................          if(c == '-') { 
....................             expsign = 1; 
....................             c = s[ptr++]; 
....................          } 
....................          if(c == '+') 
....................             c = s[ptr++]; 
....................  
....................          while((c >= '0' && c <= '9')) { 
....................             expcnt = 10*expcnt + c - '0'; 
....................             c = s[ptr++]; 
....................          } 
....................  
....................          for(i=0;i<expcnt;i++) 
....................             exp*=10; 
....................  
....................          if(expsign==1) 
....................             result/=exp; 
....................          else 
....................             result*=exp; 
....................       } 
....................    } 
....................  
....................    if (sign == 1) 
....................       result = -1*result; 
....................    return(result); 
.................... } 
.................... #endif 
....................  
.................... #if !defined(__PCD__) 
.................... float atoe(char * s) 
.................... { 
....................    float pow10 = 1.0; 
....................    float result = 0.0; 
....................    unsigned int8 sign = 0; 
....................    unsigned int8 expsign = 0; 
....................    char c; 
....................    unsigned int8 ptr = 0; 
....................    unsigned int8 i; 
....................    float exp = 1.0; 
....................    unsigned int8 expcnt = 0; 
....................  
....................    c = s[ptr++]; 
....................  
....................    if ((c>='0' && c<='9') || c=='+' || c=='-' || c=='.' || c=='E' || c=='e') { 
....................       if(c == '-') { 
....................          sign = 1; 
....................          c = s[ptr++]; 
....................       } 
....................       if(c == '+') 
....................          c = s[ptr++]; 
....................  
....................       while((c >= '0' && c <= '9')) { 
....................          result = 10*result + c - '0'; 
....................          c = s[ptr++]; 
....................       } 
....................  
....................       if (c == '.') { 
....................          c = s[ptr++]; 
....................          while((c >= '0' && c <= '9')) { 
....................              pow10 = pow10*10; 
....................              result += (c - '0')/pow10; 
....................              c = s[ptr++]; 
....................          } 
....................       } 
....................  
....................       // Handling the exponent 
....................       if (c=='e' || c=='E') { 
....................          c = s[ptr++]; 
....................  
....................          if(c == '-') { 
....................             expsign = 1; 
....................             c = s[ptr++]; 
....................          } 
....................          if(c == '+') 
....................             c = s[ptr++]; 
....................  
....................          while((c >= '0' && c <= '9')) { 
....................             expcnt = 10*expcnt + c - '0'; 
....................             c = s[ptr++]; 
....................          } 
....................  
....................          for(i=0;i<expcnt;i++) 
....................             exp*=10; 
....................  
....................          if(expsign==1) 
....................             result/=exp; 
....................          else 
....................             result*=exp; 
....................       } 
....................    } 
....................  
....................    if (sign == 1) 
....................       result = -1*result; 
....................    return(result); 
.................... } 
.................... #endif 
....................  
.................... signed int atoi(char *s) 
.................... { 
....................    signed int result; 
....................    unsigned int sign, base, index; 
....................    char c; 
....................  
....................    index = 0; 
....................    sign = 0; 
....................    base = 10; 
....................    result = 0; 
....................  
....................    if (!s) 
....................       return 0; 
....................    // Omit all preceeding alpha characters 
....................    c = s[index++]; 
....................  
....................    // increase index if either positive or negative sign is detected 
....................    if (c == '-') 
....................    { 
....................       sign = 1;         // Set the sign to negative 
....................       c = s[index++]; 
....................    } 
....................    else if (c == '+') 
....................    { 
....................       c = s[index++]; 
....................    } 
....................  
....................    if (c >= '0' && c <= '9') 
....................    { 
....................  
....................       // Check for hexa number 
....................       if (c == '0' && (s[index] == 'x' || s[index] == 'X')) 
....................       { 
....................          base = 16; 
....................          index++; 
....................          c = s[index++]; 
....................       } 
....................  
....................       // The number is a decimal number 
....................       if (base == 10) 
....................       { 
....................          while (c >= '0' && c <= '9') 
....................          { 
....................             result = 10*result + (c - '0'); 
....................             c = s[index++]; 
....................          } 
....................       } 
....................       else if (base == 16)    // The number is a hexa number 
....................       { 
....................          c = toupper(c); 
....................          while ( (c >= '0' && c <= '9') || (c >= 'A' && c<='F')) 
....................          { 
....................             if (c >= '0' && c <= '9') 
....................                result = (result << 4) + (c - '0'); 
....................             else 
....................                result = (result << 4) + (c - 'A' + 10); 
....................  
....................             c = s[index++]; 
....................             c = toupper(c); 
....................          } 
....................       } 
....................    } 
....................  
....................    if (sign == 1 && base == 10) 
....................        result = -result; 
....................  
....................    return(result); 
.................... } 
....................  
.................... signed long atol(char *s) 
.................... { 
....................    signed long result; 
....................    unsigned int sign, base, index; 
....................    char c; 
....................  
....................    index = 0; 
....................    sign = 0; 
....................    base = 10; 
....................    result = 0; 
....................  
....................    if (!s) 
....................       return 0; 
....................    c = s[index++]; 
....................  
....................    // increase index if either positive or negative sign is detected 
....................    if (c == '-') 
....................    { 
....................       sign = 1;         // Set the sign to negative 
....................       c = s[index++]; 
....................    } 
....................    else if (c == '+') 
....................    { 
....................       c = s[index++]; 
....................    } 
....................  
....................    if (c >= '0' && c <= '9') 
....................    { 
....................       if (c == '0' && (s[index] == 'x' || s[index] == 'X')) 
....................       { 
....................          base = 16; 
....................          index++; 
....................          c = s[index++]; 
....................       } 
....................  
....................       // The number is a decimal number 
....................       if (base == 10) 
....................       { 
....................          while (c >= '0' && c <= '9') 
....................          { 
....................             result = 10*result + (c - '0'); 
....................             c = s[index++]; 
....................          } 
....................       } 
....................       else if (base == 16)    // The number is a hexa number 
....................       { 
....................          c = toupper(c); 
....................          while ( (c >= '0' && c <= '9') || (c >= 'A' && c <='F')) 
....................          { 
....................             if (c >= '0' && c <= '9') 
....................                result = (result << 4) + (c - '0'); 
....................             else 
....................                result = (result << 4) + (c - 'A' + 10); 
....................  
....................             c = s[index++];c = toupper(c); 
....................          } 
....................       } 
....................    } 
....................  
....................    if (base == 10 && sign == 1) 
....................       result = -result; 
....................  
....................    return(result); 
.................... } 
....................  
.................... /* A fast routine to multiply by 10 
....................  */ 
.................... signed int32 mult_with10(int32 num) 
.................... { 
....................    return ( (num << 1) + (num << 3) ); 
.................... } 
....................  
.................... #if sizeof(long)==2 
.................... signed int32 atoi32(char *s) 
.................... { 
....................    signed int32 result; 
....................    int8 sign, base, index; 
....................    char c; 
....................  
....................    index = 0; 
....................    sign = 0; 
....................    base = 10; 
....................    result = 0; 
....................  
....................    if (!s) 
....................       return 0; 
....................    c = s[index++]; 
....................  
....................    // increase index if either positive or negative sign is detected 
....................    if (c == '-') 
....................    { 
....................       sign = 1;         // Set the sign to negative 
....................       c = s[index++]; 
....................    } 
....................    else if (c == '+') 
....................    { 
....................       c = s[index++]; 
....................    } 
....................  
....................    if (c >= '0' && c <= '9') 
....................    { 
....................       if (c == '0' && (s[index] == 'x' || s[index] == 'X')) 
....................       { 
....................          base = 16; 
....................          index++; 
....................          c = s[index++]; 
....................       } 
....................  
....................       // The number is a decimal number 
....................       if (base == 10) 
....................       { 
....................          while (c >= '0' && c <= '9') { 
....................             result = (result << 1) + (result << 3);  // result *= 10; 
....................             result += (c - '0'); 
....................             c = s[index++]; 
....................          } 
....................       } 
....................       else if (base == 16)    // The number is a hexa number 
....................       { 
....................          c = toupper(c); 
....................          while ((c >= '0' && c <= '9') || (c >= 'A' && c <='F')) 
....................          { 
....................             if (c >= '0' && c <= '9') 
....................                result = (result << 4) + (c - '0'); 
....................             else 
....................                result = (result << 4) + (c - 'A' + 10); 
....................  
....................             c = s[index++];c = toupper(c); 
....................          } 
....................       } 
....................    } 
....................  
....................    if (base == 10 && sign == 1) 
....................       result = -result; 
....................  
....................    return(result); 
.................... } 
.................... #endif 
....................  
.................... #if defined(__PCD__) 
....................  
.................... signed int48 atoi48(char *s) 
.................... { 
....................    signed int48 result; 
....................    int8 sign, base, index; 
....................    char c; 
....................  
....................    index = 0; 
....................    sign = 0; 
....................    base = 10; 
....................    result = 0; 
....................  
....................    if (!s) 
....................       return 0; 
....................    c = s[index++]; 
....................  
....................    // increase index if either positive or negative sign is detected 
....................    if (c == '-') 
....................    { 
....................       sign = 1;         // Set the sign to negative 
....................       c = s[index++]; 
....................    } 
....................    else if (c == '+') 
....................    { 
....................       c = s[index++]; 
....................    } 
....................  
....................    if (c >= '0' && c <= '9') 
....................    { 
....................       if (c == '0' && (s[index] == 'x' || s[index] == 'X')) 
....................       { 
....................          base = 16; 
....................          index++; 
....................          c = s[index++]; 
....................       } 
....................  
....................       // The number is a decimal number 
....................       if (base == 10) 
....................       { 
....................          while (c >= '0' && c <= '9') { 
....................             result = (result << 1) + (result << 3);  // result *= 10; 
....................             result += (c - '0'); 
....................             c = s[index++]; 
....................          } 
....................       } 
....................       else if (base == 16)    // The number is a hexa number 
....................       { 
....................          c = toupper(c); 
....................          while ((c >= '0' && c <= '9') || (c >= 'A' && c <='F')) 
....................          { 
....................             if (c >= '0' && c <= '9') 
....................                result = (result << 4) + (c - '0'); 
....................             else 
....................                result = (result << 4) + (c - 'A' + 10); 
....................  
....................             c = s[index++];c = toupper(c); 
....................          } 
....................       } 
....................    } 
....................  
....................    if (base == 10 && sign == 1) 
....................       result = -result; 
....................  
....................    return(result); 
.................... } 
....................  
.................... signed int64 atoi64(char *s) 
.................... { 
....................    signed int64 result; 
....................    int8 sign, base, index; 
....................    char c; 
....................  
....................    index = 0; 
....................    sign = 0; 
....................    base = 10; 
....................    result = 0; 
....................  
....................    if (!s) 
....................       return 0; 
....................    c = s[index++]; 
....................  
....................    // increase index if either positive or negative sign is detected 
....................    if (c == '-') 
....................    { 
....................       sign = 1;         // Set the sign to negative 
....................       c = s[index++]; 
....................    } 
....................    else if (c == '+') 
....................    { 
....................       c = s[index++]; 
....................    } 
....................  
....................    if (c >= '0' && c <= '9') 
....................    { 
....................       if (c == '0' && (s[index] == 'x' || s[index] == 'X')) 
....................       { 
....................          base = 16; 
....................          index++; 
....................          c = s[index++]; 
....................       } 
....................  
....................       // The number is a decimal number 
....................       if (base == 10) 
....................       { 
....................          while (c >= '0' && c <= '9') { 
....................             result = (result << 1) + (result << 3);  // result *= 10; 
....................             result += (c - '0'); 
....................             c = s[index++]; 
....................          } 
....................       } 
....................       else if (base == 16)    // The number is a hexa number 
....................       { 
....................          c = toupper(c); 
....................          while ((c >= '0' && c <= '9') || (c >= 'A' && c <='F')) 
....................          { 
....................             if (c >= '0' && c <= '9') 
....................                result = (result << 4) + (c - '0'); 
....................             else 
....................                result = (result << 4) + (c - 'A' + 10); 
....................  
....................             c = s[index++];c = toupper(c); 
....................          } 
....................       } 
....................    } 
....................  
....................    if (base == 10 && sign == 1) 
....................       result = -result; 
....................  
....................    return(result); 
.................... } 
.................... #endif 
....................  
.................... char * itoa(signed int32 num, unsigned int base, char * s) 
.................... { 
....................      unsigned int32 temp=1; 
....................      unsigned int8 i,sign=0,cnt=0; 
....................      char c; 
....................  
....................      if(num<0) { 
....................          sign=1;        // Check for negative number 
....................          num*=-1; 
....................      } 
....................  
....................      while(temp>0) { 
....................          temp=(num/base); 
....................          s[cnt]=(num%base)+'0';    // Conversion 
....................  
....................          if(s[cnt]>0x39) 
....................             s[cnt]+=0x7; 
....................  
....................          cnt++; 
....................          num=temp; 
....................      } 
....................  
....................      if(sign==1) { 
....................          s[cnt]=0x2D;      // Negative sign 
....................          cnt++; 
....................      } 
....................  
....................      for(i = 0;i<(int8)(cnt/2);i++) { 
....................  
....................          c=s[i]; 
....................          s[i]=s[cnt-i-1];        // Reverse the number 
....................          s[cnt-i-1]=c; 
....................      } 
....................      s[cnt]='\0';     // End the string 
....................      return s; 
.................... } 
....................  
.................... #if defined(__PCD__) 
....................  
.................... char * itoa(signed int48 num, unsigned int base, char * s) 
.................... { 
....................      unsigned int48 temp=1; 
....................      unsigned int8 i,sign=0,cnt=0; 
....................      char c; 
....................  
....................      if(num<0) { 
....................          sign=1;        // Check for negative number 
....................          num*=-1; 
....................      } 
....................  
....................      while(temp>0) { 
....................          temp=(num/base); 
....................          s[cnt]=(num%base)+'0';    // Conversion 
....................  
....................          if(s[cnt]>0x39) 
....................             s[cnt]+=0x7; 
....................  
....................          cnt++; 
....................          num=temp; 
....................      } 
....................  
....................      if(sign==1) { 
....................          s[cnt]=0x2D;      // Negative sign 
....................          cnt++; 
....................      } 
....................  
....................      for(i = 0;i<(int8)(cnt/2);i++) { 
....................  
....................          c=s[i]; 
....................          s[i]=s[cnt-i-1];        // Reverse the number 
....................          s[cnt-i-1]=c; 
....................      } 
....................      s[cnt]='\0';     // End the string 
....................      return s; 
.................... } 
....................  
.................... char * itoa(signed int64 num, unsigned int base, char * s) 
.................... { 
....................      unsigned int64 temp=1; 
....................      unsigned int8 i,sign=0,cnt=0; 
....................      char c; 
....................       
....................      if(num<0) { 
....................          sign=1;        // Check for negative number 
....................          num*=-1;         
....................      } 
....................  
....................      while(temp>0) { 
....................          temp=(num/base); 
....................          s[cnt]=(num%base)+'0';    // Conversion 
....................  
....................          if(s[cnt]>0x39) 
....................             s[cnt]+=0x7; 
....................              
....................          cnt++; 
....................          num=temp; 
....................      } 
....................  
....................      if(sign==1) { 
....................          s[cnt]=0x2D;      // Negative sign 
....................          cnt++; 
....................      } 
....................  
....................      for(i = 0;i<(int8)(cnt/2);i++) { 
....................  
....................          c=s[i]; 
....................          s[i]=s[cnt-i-1];        // Reverse the number 
....................          s[cnt-i-1]=c; 
....................      } 
....................      s[cnt]='\0';     // End the string 
....................      return s; 
.................... } 
....................  
.................... #endif 
....................  
.................... float strtof(char *s, char *endptr) 
.................... { 
....................    float pow10 = 1.0; 
....................    float result = 0.0; 
....................    int1 skip = 1, sign = 0, point = 0; 
....................    char c; 
....................    unsigned int8 ptr = 0; 
....................  
....................    if (!s) 
....................       return 0; 
....................  
....................    for(c=s[ptr++]; c!=0; c=s[ptr++]) 
....................    { 
....................       if (skip && !isspace(c)) 
....................       { 
....................          skip = 0; 
....................          if (c == '+') 
....................          { 
....................             sign = 0; 
....................             continue; 
....................          }             
....................          else if (c == '-') 
....................          { 
....................             sign = 1; 
....................             continue; 
....................          } 
....................       } 
....................       if (!skip && (c == '.') && !point) 
....................          point = 1; 
....................       else if (!skip && isdigit(c)) 
....................       { 
....................          c -= '0'; 
....................          if (point) 
....................          { 
....................             pow10 = pow10 * 10.0; 
....................             result += (float)c / pow10;    
....................          } 
....................          else 
....................          { 
....................             result = 10.0 * result + (float)c; 
....................          } 
....................       } 
....................       else if (!skip) 
....................          break; 
....................    } 
....................  
....................    if (sign) 
....................       result = -1*result; 
....................        
....................    if(endptr) 
....................    { 
....................       if (ptr) { 
....................          ptr--; 
....................        #IF LONG_POINTERS  
....................          *((int16 *)endptr)= s+ptr;  
....................        #ELSE 
....................          *((char *)endptr)=s+ptr; 
....................        #ENDIF 
....................       } 
....................       else 
....................       { 
....................       #IF LONG_POINTERS 
....................       *((int16 *)endptr)= s;  
....................       #ELSE 
....................       *((char *)endptr)=s; 
....................       #ENDIF 
....................       } 
....................    } 
....................  
....................    return(result); 
.................... } 
....................  
.................... #if defined(__PCD__) 
.................... float48 strtof48(char *s, char *endptr) 
.................... { 
....................    float48 pow10 = 1.0; 
....................    float48 result = 0.0; 
....................    int1 skip = 1, sign = 0, point = 0; 
....................    char c; 
....................    unsigned int8 ptr = 0; 
....................  
....................    if (!s) 
....................       return 0; 
....................  
....................    for(c=s[ptr++]; c!=0; c=s[ptr++]) 
....................    { 
....................       if (skip && !isspace(c)) 
....................       { 
....................          skip = 0; 
....................          if (c == '+') 
....................          { 
....................             sign = 0; 
....................             continue; 
....................          }             
....................          else if (c == '-') 
....................          { 
....................             sign = 1; 
....................             continue; 
....................          } 
....................       } 
....................       if (!skip && (c == '.') && !point) 
....................          point = 1; 
....................       else if (!skip && isdigit(c)) 
....................       { 
....................          c -= '0'; 
....................          if (point) 
....................          { 
....................             pow10 = pow10 * 10.0; 
....................             result += (float48)c / pow10;    
....................          } 
....................          else 
....................          { 
....................             result = 10.0 * result + (float48)c; 
....................          } 
....................       } 
....................       else if (!skip) 
....................          break; 
....................    } 
....................  
....................    if (sign) 
....................       result = -1*result; 
....................        
....................    if(endptr) 
....................    { 
....................       if (ptr) { 
....................          ptr--; 
....................        #IF LONG_POINTERS  
....................          *((int16 *)endptr)= s+ptr;  
....................        #ELSE 
....................          *((char *)endptr)=s+ptr; 
....................        #ENDIF 
....................       } 
....................       else 
....................       { 
....................       #IF LONG_POINTERS 
....................       *((int16 *)endptr)= s;  
....................       #ELSE 
....................       *((char *)endptr)=s; 
....................       #ENDIF 
....................       } 
....................    } 
....................  
....................    return(result); 
.................... } 
....................  
.................... float64 strtod(char *s, char *endptr) 
.................... { 
....................    float64 pow10 = 1.0; 
....................    float64 result = 0.0; 
....................    int1 skip = 1, sign = 0, point = 0; 
....................    char c; 
....................    unsigned int8 ptr = 0; 
....................  
....................    if (!s) 
....................       return 0; 
....................  
....................    for(c=s[ptr++]; c!=0; c=s[ptr++]) 
....................    { 
....................       if (skip && !isspace(c)) 
....................       { 
....................          skip = 0; 
....................          if (c == '+') 
....................          { 
....................             sign = 0; 
....................             continue; 
....................          }             
....................          else if (c == '-') 
....................          { 
....................             sign = 1; 
....................             continue; 
....................          } 
....................       } 
....................       if (!skip && (c == '.') && !point) 
....................          point = 1; 
....................       else if (!skip && isdigit(c)) 
....................       { 
....................          c -= '0'; 
....................          if (point) 
....................          { 
....................             pow10 = pow10 * 10.0; 
....................             result += (float64)c / pow10;    
....................          } 
....................          else 
....................          { 
....................             result = 10.0 * result + (float64)c; 
....................          } 
....................       } 
....................       else if (!skip) 
....................          break; 
....................    } 
....................  
....................    if (sign) 
....................       result = -1*result; 
....................        
....................    if(endptr) 
....................    { 
....................       if (ptr) { 
....................          ptr--; 
....................        #IF LONG_POINTERS  
....................          *((int16 *)endptr)= s+ptr;  
....................        #ELSE 
....................          *((char *)endptr)=s+ptr; 
....................        #ENDIF 
....................       } 
....................       else 
....................       { 
....................       #IF LONG_POINTERS 
....................       *((int16 *)endptr)= s;  
....................       #ELSE 
....................       *((char *)endptr)=s; 
....................       #ENDIF 
....................       } 
....................    } 
....................  
....................    return(result); 
.................... } 
.................... #endif 
....................  
.................... unsigned long strtoul(char *s, char *endptr, signed int base) 
.................... { 
....................    char *sc,*s1,*sd; 
....................    unsigned long x=0; 
....................    char sign; 
....................    char digits[]="0123456789abcdefghijklmnopqstuvwxyz"; 
....................    for(sc=s;isspace(*sc);++sc); 
....................    sign=*sc=='-'||*sc=='+'?*sc++:'+'; 
....................    if(sign=='-' || base <0 || base ==1|| base >36) // invalid base 
....................    goto StrtoulGO; 
....................  
....................    else if (base) 
....................    { 
....................       if(base==16 && *sc =='0'&&(sc[1]=='x' || sc[1]=='X')) 
....................          sc+=2; 
....................       if(base==8 && *sc =='0') 
....................          sc+=1; 
....................       if(base==2 && *sc =='0'&&sc[1]=='b') 
....................          sc+=2; 
....................  
....................    } 
....................    else if(*sc!='0') // base is 0, find base 
....................       base=10; 
....................    else if (sc[1]=='x' || sc[1]=='X') 
....................       base =16,sc+=2; 
....................    else if(sc[1]=='b') 
....................       base=2,sc+=2; 
....................    else 
....................       base=8; 
....................    for (s1=sc;*sc=='0';++sc);// skip leading zeroes 
....................    sd=memchr(digits,tolower(*sc),base); 
....................    for(; sd!=0; ) 
....................    { 
....................       x=x*base+(int16)(sd-digits); 
....................       ++sc; 
....................       sd=memchr(digits,tolower(*sc),base); 
....................    } 
....................    if(s1==sc) 
....................    { 
....................    StrtoulGO: 
....................       if (endptr) 
....................       { 
....................          #IF LONG_POINTERS 
....................          *((int16 *)endptr)= s;  
....................          #ELSE 
....................          *((char *)endptr)=s; 
....................          #ENDIF 
....................          } 
....................    return 0; 
....................    } 
....................    if (endptr) 
....................    { 
....................          #IF LONG_POINTERS 
....................          *((int16 *)endptr)= sc;  
....................          #ELSE 
....................          *((char *)endptr)=sc;  
....................          #ENDIF 
....................    } 
....................    return x; 
.................... } 
....................  
....................  
.................... signed long strtol(char *s,char *endptr, signed int base) 
.................... { 
....................    char *sc,*s1,*sd; 
....................    signed long x=0; 
....................    char sign; 
....................    char digits[]="0123456789abcdefghijklmnopqstuvwxyz"; 
....................    for(sc=s;isspace(*sc);++sc); 
....................    sign=*sc=='-'||*sc=='+'?*sc++:'+'; 
....................    if (base <0 || base ==1|| base >36) // invalid base 
....................    goto StrtolGO; 
....................    else if (base) 
....................    { 
....................       if(base==16 && *sc =='0'&&(sc[1]=='x' || sc[1]=='X')) 
....................          sc+=2; 
....................       if(base==8 && *sc =='0') 
....................          sc+=1; 
....................       if(base==2 && *sc =='0'&&sc[1]=='b') 
....................          sc+=2; 
....................  
....................    } 
....................    else if(*sc!='0') // base is 0, find base 
....................       base=10; 
....................    else if (sc[1]=='x' || sc[1]=='X') 
....................       base =16,sc+=2; 
....................    else if(sc[1]=='b') 
....................       base=2,sc+=2; 
....................    else 
....................       base=8; 
....................    for (s1=sc;*sc=='0';++sc);// skip leading zeroes 
....................  
....................    sd=memchr(digits,tolower(*sc),base); 
....................    for(;sd!=0;) 
....................    { 
....................       x=x*base+(int16)(sd-digits); 
....................       ++sc; 
....................       sd=memchr(digits,tolower(*sc),base); 
....................    } 
....................    if(s1==sc) 
....................    { 
....................    StrtolGO: 
....................       if (endptr) 
....................       { 
....................          #IF LONG_POINTERS 
....................          *((int16 *)endptr)= s;  
....................          #ELSE 
....................          *((char *)endptr)=s; 
....................          #ENDIF 
....................       } 
....................    return 0; 
....................    } 
....................    if(sign=='-') 
....................       x  =-x; 
....................    if (endptr) 
....................    { 
....................         #IF LONG_POINTERS 
....................          *((int16 *)endptr)= sc;  
....................         #ELSE 
....................         *((char *)endptr)=sc; 
....................         #ENDIF 
....................    } 
....................    return x; 
.................... } 
....................  
.................... signed int8 system(char *string) 
.................... { 
....................    return 0; 
.................... } 
....................  
.................... int8 mblen(char *s,size_t n) 
.................... { 
....................    return strlen(s); 
.................... } 
....................  
.................... int8 mbtowc(wchar_t *pwc,char *s,size_t n) 
.................... { 
....................    *pwc=*s; 
....................    return 1; 
.................... } 
....................  
.................... int8 wctomb(char *s,wchar_t wchar) 
.................... { 
....................    *s=wchar; 
....................    return 1; 
.................... } 
....................  
.................... size_t mbstowcs(wchar_t *pwcs,char *s,size_t n) 
.................... { 
....................    strncpy(pwcs,s,n); 
....................    return strlen(pwcs); 
.................... } 
....................  
.................... size_t wcstombs(char *s,wchar_t *pwcs,size_t n) 
.................... { 
....................    strncpy(s,pwcs,n); 
....................    return strlen(s); 
.................... } 
....................  
.................... //--------------------------------------------------------------------------- 
.................... // The random number implementation 
.................... //--------------------------------------------------------------------------- 
....................  
.................... unsigned int32 _Randseed; 
....................  
.................... unsigned int16 rand(void) 
.................... { 
....................    _Randseed = _Randseed * 1103515245 + 12345; 
....................    return ((unsigned int16)(_Randseed >> 16) % RAND_MAX); 
.................... } 
....................  
.................... void srand(unsigned int32 seed) 
.................... { 
....................    _Randseed = seed; 
.................... } 
....................  
.................... //--------------------------------------------------------------------------- 
.................... // Searching and sorting utilities implementation 
.................... //--------------------------------------------------------------------------- 
....................  
.................... #if !defined(__PCD__) 
.................... typedef signed int8 (*_Cmpfun)(char * p1,char * p2);  
.................... #else  
.................... typedef signed int16 (*_Cmpfun)(char * p1,char * p2);  
.................... #endif 
....................  
....................  
....................  
.................... void qsort(char * qdata, unsigned int qitems, unsigned int qsize, _Cmpfun cmp) { 
....................    unsigned int m,j,i,l; 
....................    int1 done; 
....................    unsigned int8 t[16]; 
....................  
....................    m = qitems/2; 
....................    while( m > 0 ) { 
....................      for(j=0; j<(qitems-m); ++j) { 
....................         i = j; 
....................         do 
....................         { 
....................            done=1; 
....................            l = i+m; 
....................            if( (*cmp)(qdata+i*qsize, qdata+l*qsize) > 0 ) { 
....................               memcpy(t, qdata+i*qsize, qsize); 
....................               memcpy(qdata+i*qsize, qdata+l*qsize, qsize); 
....................               memcpy(qdata+l*qsize, t, qsize); 
....................               if(m <= i) 
....................                 i -= m; 
....................                 done = 0; 
....................            } 
....................         } while(!done); 
....................      } 
....................      m = m/2; 
....................    } 
.................... } 
....................  
....................  
.................... char *bsearch(char *key, char *base, size_t num, size_t width,_Cmpfun cmp) 
.................... { 
....................    char *p, *q; 
....................    size_t n; 
....................    size_t pivot; 
....................    signed int val; 
....................  
....................    p = base; 
....................    n = num; 
....................  
....................    while (n > 0) 
....................    { 
....................       pivot = n >> 1; 
....................       q = p + width * pivot; 
....................  
....................       val = (*cmp)(key, q); 
....................  
....................       if (val < 0) 
....................          n = pivot; 
....................       else if (val == 0) 
....................          return ((char *)q); 
....................       else { 
....................          p = q + width; 
....................          n -= pivot + 1; 
....................       } 
....................    } 
....................  
....................    return NULL;      // There's no match 
.................... } 
....................  
....................  
.................... #endif 
....................  
.................... #fuses INTRC_IO 
.................... #use delay(clock=8000000)   // 8 MHz internal oscillator, chu ky may 0.5us 
*
0285:  MOVLW  D7
0286:  MOVWF  04
0287:  BCF    03.7
0288:  MOVF   00,W
0289:  BTFSC  03.2
028A:  GOTO   298
028B:  MOVLW  02
028C:  MOVWF  78
028D:  CLRF   77
028E:  DECFSZ 77,F
028F:  GOTO   28E
0290:  DECFSZ 78,F
0291:  GOTO   28D
0292:  MOVLW  97
0293:  MOVWF  77
0294:  DECFSZ 77,F
0295:  GOTO   294
0296:  DECFSZ 00,F
0297:  GOTO   28B
0298:  RETURN
*
04F0:  MOVLW  08
04F1:  SUBWF  66,F
04F2:  BTFSS  03.0
04F3:  GOTO   500
04F4:  MOVLW  E6
04F5:  MOVWF  04
04F6:  BCF    03.7
04F7:  BCF    03.0
04F8:  RRF    00,F
04F9:  MOVF   00,W
04FA:  BTFSC  03.2
04FB:  GOTO   500
04FC:  GOTO   4FE
04FD:  NOP
04FE:  DECFSZ 00,F
04FF:  GOTO   4FD
.................... #use i2c(master, sda=PIN_C4, scl=PIN_C3, slow) 
*
01B6:  MOVLW  08
01B7:  MOVWF  78
01B8:  NOP
01B9:  BCF    07.3
01BA:  BCF    2D.3
01BB:  MOVF   2D,W
01BC:  BSF    03.5
01BD:  MOVWF  07
01BE:  NOP
01BF:  RLF    58,F
01C0:  BCF    03.5
01C1:  BCF    07.4
01C2:  BTFSS  03.0
01C3:  GOTO   1CA
01C4:  BSF    2D.4
01C5:  MOVF   2D,W
01C6:  BSF    03.5
01C7:  MOVWF  07
01C8:  GOTO   1CE
01C9:  BCF    03.5
01CA:  BCF    2D.4
01CB:  MOVF   2D,W
01CC:  BSF    03.5
01CD:  MOVWF  07
01CE:  NOP
01CF:  BCF    03.5
01D0:  BSF    2D.3
01D1:  MOVF   2D,W
01D2:  BSF    03.5
01D3:  MOVWF  07
01D4:  BCF    03.5
01D5:  BTFSS  07.3
01D6:  GOTO   1D5
01D7:  DECFSZ 78,F
01D8:  GOTO   1B8
01D9:  NOP
01DA:  BCF    07.3
01DB:  BCF    2D.3
01DC:  MOVF   2D,W
01DD:  BSF    03.5
01DE:  MOVWF  07
01DF:  NOP
01E0:  BCF    03.5
01E1:  BSF    2D.4
01E2:  MOVF   2D,W
01E3:  BSF    03.5
01E4:  MOVWF  07
01E5:  NOP
01E6:  NOP
01E7:  BCF    03.5
01E8:  BSF    2D.3
01E9:  MOVF   2D,W
01EA:  BSF    03.5
01EB:  MOVWF  07
01EC:  BCF    03.5
01ED:  BTFSS  07.3
01EE:  GOTO   1ED
01EF:  CLRF   78
01F0:  NOP
01F1:  BTFSC  07.4
01F2:  BSF    78.0
01F3:  BCF    07.3
01F4:  BCF    2D.3
01F5:  MOVF   2D,W
01F6:  BSF    03.5
01F7:  MOVWF  07
01F8:  BCF    03.5
01F9:  BCF    07.4
01FA:  BCF    2D.4
01FB:  MOVF   2D,W
01FC:  BSF    03.5
01FD:  MOVWF  07
01FE:  BCF    03.5
01FF:  RETURN
*
02A0:  MOVLW  08
02A1:  BSF    03.5
02A2:  MOVWF  59
02A3:  MOVF   77,W
02A4:  MOVWF  5A
02A5:  BCF    03.5
02A6:  BSF    2D.4
02A7:  MOVF   2D,W
02A8:  BSF    03.5
02A9:  MOVWF  07
02AA:  NOP
02AB:  BCF    03.5
02AC:  BSF    2D.3
02AD:  MOVF   2D,W
02AE:  BSF    03.5
02AF:  MOVWF  07
02B0:  BCF    03.5
02B1:  BTFSS  07.3
02B2:  GOTO   2B1
02B3:  BTFSC  07.4
02B4:  BSF    03.0
02B5:  BTFSS  07.4
02B6:  BCF    03.0
02B7:  RLF    78,F
02B8:  NOP
02B9:  BCF    2D.3
02BA:  MOVF   2D,W
02BB:  BSF    03.5
02BC:  MOVWF  07
02BD:  BCF    03.5
02BE:  BCF    07.3
02BF:  BSF    03.5
02C0:  DECFSZ 59,F
02C1:  GOTO   2A5
02C2:  BCF    03.5
02C3:  BSF    2D.4
02C4:  MOVF   2D,W
02C5:  BSF    03.5
02C6:  MOVWF  07
02C7:  NOP
02C8:  BCF    03.5
02C9:  BCF    07.4
02CA:  BSF    03.5
02CB:  MOVF   5A,W
02CC:  BTFSC  03.2
02CD:  GOTO   2D3
02CE:  BCF    03.5
02CF:  BCF    2D.4
02D0:  MOVF   2D,W
02D1:  BSF    03.5
02D2:  MOVWF  07
02D3:  NOP
02D4:  BCF    03.5
02D5:  BSF    2D.3
02D6:  MOVF   2D,W
02D7:  BSF    03.5
02D8:  MOVWF  07
02D9:  BCF    03.5
02DA:  BTFSS  07.3
02DB:  GOTO   2DA
02DC:  NOP
02DD:  BCF    07.3
02DE:  BCF    2D.3
02DF:  MOVF   2D,W
02E0:  BSF    03.5
02E1:  MOVWF  07
02E2:  NOP
02E3:  BCF    03.5
02E4:  BCF    07.4
02E5:  BCF    2D.4
02E6:  MOVF   2D,W
02E7:  BSF    03.5
02E8:  MOVWF  07
02E9:  BCF    03.5
02EA:  RETURN
.................... #rom GETENV("EEPROM_ADDRESS") + 254 = {0, 21} // giá trị cài đặt [-27, 30], 0 âm 1 dươmg 
....................  
.................... #define SER PIN_D0 // Data input pin of 74HC595 
.................... #define SCK PIN_D2 // Clock pin of 74HC595 
.................... #define RCK PIN_D4 // Latch pin of 74HC595 
.................... #define MOD PIN_B0 
.................... #define INC PIN_B7 
.................... #define LED0 PIN_A0 
.................... #define LED1 PIN_A1 
.................... #define LED2 PIN_A2 
.................... #define LED3 PIN_A3 
.................... #define LED4 PIN_A4 
.................... #define LED5 PIN_A5 
.................... #define LED6 PIN_A6 
.................... #define LED7 PIN_A7 
.................... #define S_COI PIN_D6 
....................  
.................... volatile unsigned int8 y8 = 0xFF;         // pattern hiển thị 8 LED (bit0 -> LED0) 
.................... volatile unsigned int8 run_mask8 = 0x00; 
.................... volatile unsigned int8 save_mask8 = 0xFE; // bắt đầu giống chương tham khảo 
.................... volatile unsigned int8 outer_i8 = 0; 
.................... volatile unsigned int8 inner_k8 = 0; 
.................... volatile int1 cascade_started8 = 0;       // cờ cho biết cascade đã bắt đầu 
....................  
.................... // --- cấu hình Timer0 để tạo ngắt 1 ms --- 
.................... // Với Fosc = 8MHz -> instr = Fosc/4 = 2MHz -> 0.5us 
.................... // Prescaler = 1:8 -> tick = 0.5us * 8 = 4us 
.................... // Muốn overflow sau 1 ms -> cần 1000us/4us = 250 ticks 
.................... // Preload = 256 - 250 = 6 
.................... #define TMR0_PRELOAD 6 
.................... #define TMR1_PRELOAD    65286UL // 1 ms voi Fosc = 8MHz, prescaler 1:8, tick = 4us -> 1000us/4us = 250 ticks -> preload = 65536 - 250 = 65286 
.................... // Biến toàn cục dùng trong ISR và main 
.................... volatile unsigned int16 ms_count = 0;   // cần volatile vì ISR cập nhật 
.................... volatile unsigned int8 ms_count2 = 0;   // cần volatile vì ISR cập nhật 
.................... signed int8 time_offset = 0; 
....................  
.................... unsigned int8 second, minute, hour, date, month, year, day; 
.................... unsigned int8 minute_auto = 12, hour_auto = 12; 
.................... // Ma led 7 doan common anode tu 0 den 9, common anode = 0 la sang 
.................... const unsigned int8 MaLed7Doan[10] = {0xC0, 0xF9, 0xA4, 0xB0, 0x99, 0x92, 0x82, 0xF8, 0x80, 0x90}; 
....................  
.................... unsigned int16 TIME_DELAY = 30; // so lan chay ham HienThiVal 
....................                                       // chay ham HienThiVal_With_Delay voi delay_time = 30 se cho thoi gian hien thi la: 0.24 seconds 
.................... const unsigned int8 NUMBER = 1; // thoi gian hien thi = NUMBER * 0.24 seconds = 0.24 seconds 
.................... const unsigned int8 DichCot[16] = {0x01, 0x02, 0x04, 0x08, 0x10, 0x20, 0x40, 0x80, 0x01, 0x02, 0x04, 0x08, 0x10, 0x20, 0x40, 0x80}; 
.................... unsigned int8 ValHienThi[16] = {0xff, 0xff, 0xff, 0xff, 0xff, 0xff, 0xff, 0xff, 0xff, 0xff, 0xff, 0xff, 0xff, 0xff, 0xff, 0xff}; 
*
0E35:  MOVLW  FF
0E36:  MOVWF  43
0E37:  MOVWF  44
0E38:  MOVWF  45
0E39:  MOVWF  46
0E3A:  MOVWF  47
0E3B:  MOVWF  48
0E3C:  MOVWF  49
0E3D:  MOVWF  4A
0E3E:  MOVWF  4B
0E3F:  MOVWF  4C
0E40:  MOVWF  4D
0E41:  MOVWF  4E
0E42:  MOVWF  4F
0E43:  MOVWF  50
0E44:  MOVWF  51
0E45:  MOVWF  52
.................... const unsigned int8 ConstValHienThi[16] = {0xff, 0xff, 0xff, 0xff, 0xff, 0xff, 0xff, 0xff, 0xff, 0xff, 0xff, 0xff, 0xff, 0xff, 0xff, 0xff}; 
.................... unsigned int8 vmsg_pattern[] = {0xff, 0xff, 0xff, 0xff, 0xff, 0xff, 0xff, 0xff, // ex:________ 
....................                                 0xff, 0xff, 0xff, 0xff, 0xff, 0xff, 0xff, 0xff, 0xff, 0xff, // Placeholder for second/minute/hour, ex:04.02.2026__ 
....................                                 0x87, 0x8b, 0xe3, 0xff, 0xc6, 0xc8, 0xff, 0xff, // ex:thu_04__ 
....................                                 0x87, 0xaf, 0xa3, 0xab, 0xff, 0xa1, 0xfb, 0xab, 0x8b, 0xff, // ex:tran_dinh_ 
....................                                 0x87, 0x8b, 0xe3, 0xa3, 0xab, 0x90, // ex:thuong 
....................                                 0xff, 0xff, 0xff, 0xff, 0xff, 0xff, 0xff, 0xff}; // ex:________ 
0E46:  BSF    03.5
0E47:  MOVWF  20
0E48:  MOVWF  21
0E49:  MOVWF  22
0E4A:  MOVWF  23
0E4B:  MOVWF  24
0E4C:  MOVWF  25
0E4D:  MOVWF  26
0E4E:  MOVWF  27
0E4F:  MOVWF  28
0E50:  MOVWF  29
0E51:  MOVWF  2A
0E52:  MOVWF  2B
0E53:  MOVWF  2C
0E54:  MOVWF  2D
0E55:  MOVWF  2E
0E56:  MOVWF  2F
0E57:  MOVWF  30
0E58:  MOVWF  31
0E59:  MOVLW  87
0E5A:  MOVWF  32
0E5B:  MOVLW  8B
0E5C:  MOVWF  33
0E5D:  MOVLW  E3
0E5E:  MOVWF  34
0E5F:  MOVLW  FF
0E60:  MOVWF  35
0E61:  MOVLW  C6
0E62:  MOVWF  36
0E63:  MOVLW  C8
0E64:  MOVWF  37
0E65:  MOVLW  FF
0E66:  MOVWF  38
0E67:  MOVWF  39
0E68:  MOVLW  87
0E69:  MOVWF  3A
0E6A:  MOVLW  AF
0E6B:  MOVWF  3B
0E6C:  MOVLW  A3
0E6D:  MOVWF  3C
0E6E:  MOVLW  AB
0E6F:  MOVWF  3D
0E70:  MOVLW  FF
0E71:  MOVWF  3E
0E72:  MOVLW  A1
0E73:  MOVWF  3F
0E74:  MOVLW  FB
0E75:  MOVWF  40
0E76:  MOVLW  AB
0E77:  MOVWF  41
0E78:  MOVLW  8B
0E79:  MOVWF  42
0E7A:  MOVLW  FF
0E7B:  MOVWF  43
0E7C:  MOVLW  87
0E7D:  MOVWF  44
0E7E:  MOVLW  8B
0E7F:  MOVWF  45
0E80:  MOVLW  E3
0E81:  MOVWF  46
0E82:  MOVLW  A3
0E83:  MOVWF  47
0E84:  MOVLW  AB
0E85:  MOVWF  48
0E86:  MOVLW  90
0E87:  MOVWF  49
0E88:  MOVLW  FF
0E89:  MOVWF  4A
0E8A:  MOVWF  4B
0E8B:  MOVWF  4C
0E8C:  MOVWF  4D
0E8D:  MOVWF  4E
0E8E:  MOVWF  4F
0E8F:  MOVWF  50
0E90:  MOVWF  51
....................                                                                                  // ________04.02.2026__thu_04__tran_dinh_thuong________ 
....................  
.................... unsigned int8 pos = 0; 
.................... int1 flag_coi = 0; 
.................... int1 flag_led = 0; 
.................... int1 flag_save = 0; 
.................... unsigned int8 offset_sign = 0; 
.................... unsigned int8 offset_value = 0; 
.................... void xuat_1byte(unsigned int8 bytexuat); 
.................... void xuat_4byte_latch(unsigned int32 xuat4byte); 
.................... void HienThiVal(unsigned int8 Val[16]); 
.................... void HienThiVal_With_Delay(unsigned int8 Val[16], unsigned int16 delay_time); 
.................... void HienThiVal_With_Delay_number(unsigned int16 delay_time, unsigned int8 number); 
.................... void get_data(); 
.................... void Convert_BCD_to_Decimal(); 
.................... void Convert_Decimal_to_BCD(); 
.................... void ds1307_write(unsigned int8 address, unsigned int8 data); 
.................... void Adjust_Time_Calendar(); 
.................... void Adjust_Time_Calendar_Auto(); 
.................... void bao_thoi_gian(); 
.................... void setup_Time_Calendar(); 
.................... void latch(); 
.................... void timer0_init(void); 
.................... void timer0_start(void); 
.................... unsigned int16 timer0_stop(void); 
.................... void timer0_isr(void); 
.................... void save_Time_Offset_to_EEPROM(); 
.................... void mod_selection(); 
.................... void timer1_init(void); 
.................... void output8led(unsigned int8 _pattern); 
.................... void timer1_isr(void); 
.................... void XoaHienThi(); 
.................... signed int8 ConvertUnsignedToSigned(unsigned int8 value); 
....................  
.................... void XoaHienThi() { 
....................     for (unsigned int8 i = 0; i < 16; i++) { 
*
0542:  BSF    03.5
0543:  CLRF   56
0544:  MOVF   56,W
0545:  SUBLW  0F
0546:  BTFSS  03.0
0547:  GOTO   554
....................         ValHienThi[i] = ConstValHienThi[i]; 
0548:  MOVLW  43
0549:  ADDWF  56,W
054A:  MOVWF  04
054B:  BCF    03.7
054C:  MOVF   56,W
054D:  BCF    03.5
054E:  CALL   05A
054F:  MOVWF  78
0550:  MOVWF  00
0551:  BSF    03.5
0552:  INCF   56,F
0553:  GOTO   544
....................     } 
0554:  BCF    03.5
0555:  RETURN
.................... } 
....................  
.................... /* Xuất pattern 8 bit ra LED0..LED7 (bit0 -> LED0, bit7 -> LED7) 
....................    Lưu ý: nếu LED của bạn active-low thì đổi điều kiện ((_pattern & (1<<i)) ? 1 : 0) -> invert */ 
.................... void output8led(unsigned int8 _pattern) 
.................... { 
....................     output_bit(LED0, (_pattern & (1 << 0)) ? 1 : 0); 
*
0078:  BSF    03.6
0079:  BTFSS  15.0
007A:  GOTO   07D
007B:  MOVLW  01
007C:  GOTO   07E
007D:  MOVLW  00
007E:  XORLW  00
007F:  BTFSS  03.2
0080:  GOTO   085
0081:  BCF    03.6
0082:  BCF    05.0
0083:  GOTO   087
0084:  BSF    03.6
0085:  BCF    03.6
0086:  BSF    05.0
0087:  BSF    03.5
0088:  BCF    05.0
....................     output_bit(LED1, (_pattern & (1 << 1)) ? 1 : 0); 
0089:  BCF    03.5
008A:  BSF    03.6
008B:  BTFSS  15.1
008C:  GOTO   08F
008D:  MOVLW  01
008E:  GOTO   090
008F:  MOVLW  00
0090:  XORLW  00
0091:  BTFSS  03.2
0092:  GOTO   097
0093:  BCF    03.6
0094:  BCF    05.1
0095:  GOTO   099
0096:  BSF    03.6
0097:  BCF    03.6
0098:  BSF    05.1
0099:  BSF    03.5
009A:  BCF    05.1
....................     output_bit(LED2, (_pattern & (1 << 2)) ? 1 : 0); 
009B:  BCF    03.5
009C:  BSF    03.6
009D:  BTFSS  15.2
009E:  GOTO   0A1
009F:  MOVLW  01
00A0:  GOTO   0A2
00A1:  MOVLW  00
00A2:  XORLW  00
00A3:  BTFSS  03.2
00A4:  GOTO   0A9
00A5:  BCF    03.6
00A6:  BCF    05.2
00A7:  GOTO   0AB
00A8:  BSF    03.6
00A9:  BCF    03.6
00AA:  BSF    05.2
00AB:  BSF    03.5
00AC:  BCF    05.2
....................     output_bit(LED3, (_pattern & (1 << 3)) ? 1 : 0); 
00AD:  BCF    03.5
00AE:  BSF    03.6
00AF:  BTFSS  15.3
00B0:  GOTO   0B3
00B1:  MOVLW  01
00B2:  GOTO   0B4
00B3:  MOVLW  00
00B4:  XORLW  00
00B5:  BTFSS  03.2
00B6:  GOTO   0BB
00B7:  BCF    03.6
00B8:  BCF    05.3
00B9:  GOTO   0BD
00BA:  BSF    03.6
00BB:  BCF    03.6
00BC:  BSF    05.3
00BD:  BSF    03.5
00BE:  BCF    05.3
....................     output_bit(LED4, (_pattern & (1 << 4)) ? 1 : 0); 
00BF:  BCF    03.5
00C0:  BSF    03.6
00C1:  BTFSS  15.4
00C2:  GOTO   0C5
00C3:  MOVLW  01
00C4:  GOTO   0C6
00C5:  MOVLW  00
00C6:  XORLW  00
00C7:  BTFSS  03.2
00C8:  GOTO   0CD
00C9:  BCF    03.6
00CA:  BCF    05.4
00CB:  GOTO   0CF
00CC:  BSF    03.6
00CD:  BCF    03.6
00CE:  BSF    05.4
00CF:  BSF    03.5
00D0:  BCF    05.4
....................     output_bit(LED5, (_pattern & (1 << 5)) ? 1 : 0); 
00D1:  BCF    03.5
00D2:  BSF    03.6
00D3:  BTFSS  15.5
00D4:  GOTO   0D7
00D5:  MOVLW  01
00D6:  GOTO   0D8
00D7:  MOVLW  00
00D8:  XORLW  00
00D9:  BTFSS  03.2
00DA:  GOTO   0DF
00DB:  BCF    03.6
00DC:  BCF    05.5
00DD:  GOTO   0E1
00DE:  BSF    03.6
00DF:  BCF    03.6
00E0:  BSF    05.5
00E1:  BSF    03.5
00E2:  BCF    05.5
....................     output_bit(LED6, (_pattern & (1 << 6)) ? 1 : 0); 
00E3:  BCF    03.5
00E4:  BSF    03.6
00E5:  BTFSS  15.6
00E6:  GOTO   0E9
00E7:  MOVLW  01
00E8:  GOTO   0EA
00E9:  MOVLW  00
00EA:  XORLW  00
00EB:  BTFSS  03.2
00EC:  GOTO   0F1
00ED:  BCF    03.6
00EE:  BCF    05.6
00EF:  GOTO   0F3
00F0:  BSF    03.6
00F1:  BCF    03.6
00F2:  BSF    05.6
00F3:  BSF    03.5
00F4:  BCF    05.6
....................     output_bit(LED7, (_pattern & (1 << 7)) ? 1 : 0); 
00F5:  BCF    03.5
00F6:  BSF    03.6
00F7:  BTFSS  15.7
00F8:  GOTO   0FB
00F9:  MOVLW  01
00FA:  GOTO   0FC
00FB:  MOVLW  00
00FC:  XORLW  00
00FD:  BTFSS  03.2
00FE:  GOTO   103
00FF:  BCF    03.6
0100:  BCF    05.7
0101:  GOTO   105
0102:  BSF    03.6
0103:  BCF    03.6
0104:  BSF    05.7
0105:  BSF    03.5
0106:  BCF    05.7
0107:  BCF    03.5
0108:  RETURN
.................... } 
....................  
.................... void timer0_init(void) { 
....................     // Disable interrupts toàn cục tạm khi cấu hình 
....................    disable_interrupts(GLOBAL); 
*
0197:  BCF    0B.6
0198:  BCF    0B.7
0199:  BTFSC  0B.7
019A:  GOTO   198
....................  
....................    // Set prescaler to 1:8, source = internal instruction clock 
....................    // T0_INTERNAL | T0_DIV_8 
....................    setup_timer_0(T0_INTERNAL | T0_DIV_8); 
019B:  BSF    03.5
019C:  MOVF   01,W
019D:  ANDLW  C0
019E:  IORLW  02
019F:  MOVWF  01
....................  
....................    // preload timer 
....................    set_timer0(TMR0_PRELOAD); 
01A0:  MOVLW  06
01A1:  BCF    03.5
01A2:  MOVWF  01
....................  
....................    // clear flag 
....................    clear_interrupt(INT_TIMER0); 
01A3:  BCF    0B.2
01A4:  BSF    0A.3
01A5:  BCF    0A.4
01A6:  GOTO   6C8 (RETURN)
....................  
....................    // do not enable interrupt yet 
....................    // enable_interrupts(INT_TIMER0);   // sẽ enable khi start 
....................    // enable_interrupts(GLOBAL);       // enable sau khi start 
.................... } 
....................  
.................... void timer1_init(void) { 
....................     // Disable interrupts toàn cục tạm khi cấu hình 
....................    disable_interrupts(GLOBAL); 
01A7:  BCF    0B.6
01A8:  BCF    0B.7
01A9:  BTFSC  0B.7
01AA:  GOTO   1A8
....................  
....................    // Set prescaler to 1:8, source = internal instruction clock 
....................    // T1_INTERNAL | T1_DIV_8 
....................    setup_timer_1(T1_INTERNAL | T1_DIV_BY_8); 
01AB:  MOVLW  35
01AC:  MOVWF  10
....................  
....................    // preload timer 
....................    set_timer1(TMR1_PRELOAD); 
01AD:  CLRF   0E
01AE:  MOVLW  FF
01AF:  MOVWF  0F
01B0:  MOVLW  06
01B1:  MOVWF  0E
....................  
....................    // clear flag 
....................    clear_interrupt(INT_TIMER1); 
01B2:  BCF    0C.0
01B3:  BSF    0A.3
01B4:  BCF    0A.4
01B5:  GOTO   6CB (RETURN)
....................  
....................    // do not enable interrupt yet 
....................    // enable_interrupts(INT_TIMER1);   // sẽ enable khi start 
....................    // enable_interrupts(GLOBAL);       // enable sau khi start 
.................... } 
....................  
.................... // Start timer (reset counters, bật ngắt) 
.................... void timer0_start(void) 
.................... { 
....................     disable_interrupts(INT_TIMER1); 
*
0815:  BSF    03.5
0816:  BCF    0C.0
....................    // reset counters & cờ 
....................    ms_count = 0; 
0817:  BCF    03.5
0818:  CLRF   35
0819:  CLRF   34
....................  
....................     clear_interrupt(INT_TIMER0); 
081A:  BCF    0B.2
....................    set_timer0(TMR0_PRELOAD); 
081B:  MOVLW  06
081C:  MOVWF  01
....................  
....................    enable_interrupts(INT_TIMER0); 
081D:  BSF    0B.5
....................    enable_interrupts(GLOBAL); 
081E:  MOVLW  C0
081F:  IORWF  0B,F
.................... } 
....................  
.................... unsigned int16 timer0_stop(void) { 
....................     disable_interrupts(INT_TIMER0); 
*
0825:  BCF    0B.5
....................     if (flag_led == 1) enable_interrupts(INT_TIMER1); 
0826:  BTFSS  33.2
0827:  GOTO   02C
0828:  BSF    03.5
0829:  BSF    0C.0
082A:  GOTO   02E
082B:  BCF    03.5
....................     else disable_interrupts(INT_TIMER1); 
082C:  BSF    03.5
082D:  BCF    0C.0
....................     return ms_count; 
082E:  BCF    03.5
082F:  MOVF   34,W
0830:  MOVWF  78
0831:  MOVF   35,W
0832:  MOVWF  79
.................... } 
....................  
.................... void mod_selection() { 
....................     if (input(MOD) == 0) { 
*
0800:  BSF    03.5
0801:  BSF    06.0
0802:  BCF    03.5
0803:  BTFSC  06.0
0804:  GOTO   4A4
....................         delay_ms(500); // chong nhieu 
0805:  MOVLW  02
0806:  BSF    03.5
0807:  MOVWF  56
0808:  MOVLW  FA
0809:  MOVWF  57
080A:  BCF    0A.3
080B:  BCF    03.5
080C:  CALL   285
080D:  BSF    0A.3
080E:  BSF    03.5
080F:  DECFSZ 56,F
0810:  GOTO   008
....................         if (input(MOD) == 0) { 
0811:  BSF    06.0
0812:  BCF    03.5
0813:  BTFSC  06.0
0814:  GOTO   4A4
....................             timer0_start(); 
....................             while (input(MOD) == 0); 
*
0820:  BSF    03.5
0821:  BSF    06.0
0822:  BCF    03.5
0823:  BTFSS  06.0
0824:  GOTO   020
....................             unsigned int16 elapsed_time = timer0_stop(); 
*
0833:  MOVF   79,W
0834:  BSF    03.5
0835:  MOVWF  55
0836:  MOVF   78,W
0837:  MOVWF  54
....................             if (elapsed_time >= 0 && elapsed_time <= 3000) { // 2s, hieu chinh thoi gian va lich 
0838:  MOVF   55,W
0839:  SUBLW  0B
083A:  BTFSS  03.0
083B:  GOTO   342
083C:  BTFSS  03.2
083D:  GOTO   042
083E:  MOVF   54,W
083F:  SUBLW  B8
0840:  BTFSS  03.0
0841:  GOTO   342
....................                 Adjust_Time_Calendar(); 
....................             } 
....................             if (elapsed_time > 3000 && elapsed_time <= 5000) { // 4s, hieu chinh gia tri time_offset 
*
0B42:  MOVF   55,W
0B43:  SUBLW  0A
0B44:  BTFSC  03.0
0B45:  GOTO   40F
0B46:  XORLW  FF
0B47:  BTFSS  03.2
0B48:  GOTO   34D
0B49:  MOVF   54,W
0B4A:  SUBLW  B8
0B4B:  BTFSC  03.0
0B4C:  GOTO   40F
0B4D:  MOVF   55,W
0B4E:  SUBLW  13
0B4F:  BTFSS  03.0
0B50:  GOTO   40F
0B51:  BTFSS  03.2
0B52:  GOTO   357
0B53:  MOVF   54,W
0B54:  SUBLW  88
0B55:  BTFSS  03.0
0B56:  GOTO   40F
....................                 save_Time_Offset_to_EEPROM(); 
....................             } 
....................             if (elapsed_time > 5000 && elapsed_time <= 7000) { // 6s, dieu chinh led 
*
0C0F:  MOVF   55,W
0C10:  SUBLW  12
0C11:  BTFSC  03.0
0C12:  GOTO   44F
0C13:  XORLW  FF
0C14:  BTFSS  03.2
0C15:  GOTO   41A
0C16:  MOVF   54,W
0C17:  SUBLW  88
0C18:  BTFSC  03.0
0C19:  GOTO   44F
0C1A:  MOVF   55,W
0C1B:  SUBLW  1B
0C1C:  BTFSS  03.0
0C1D:  GOTO   44F
0C1E:  BTFSS  03.2
0C1F:  GOTO   424
0C20:  MOVF   54,W
0C21:  SUBLW  58
0C22:  BTFSS  03.0
0C23:  GOTO   44F
....................                 flag_led = ~flag_led; 
0C24:  MOVLW  04
0C25:  BCF    03.5
0C26:  XORWF  33,F
....................                 if (flag_led == 1) enable_interrupts(INT_TIMER1); 
0C27:  BTFSS  33.2
0C28:  GOTO   42D
0C29:  BSF    03.5
0C2A:  BSF    0C.0
0C2B:  GOTO   44F
0C2C:  BCF    03.5
....................                 else { 
....................                     disable_interrupts(INT_TIMER1); 
0C2D:  BSF    03.5
0C2E:  BCF    0C.0
....................                     output_high(LED0); 
0C2F:  BCF    05.0
0C30:  BCF    03.5
0C31:  BSF    05.0
....................                     output_low(LED1); 
0C32:  BSF    03.5
0C33:  BCF    05.1
0C34:  BCF    03.5
0C35:  BCF    05.1
....................                     output_low(LED2); 
0C36:  BSF    03.5
0C37:  BCF    05.2
0C38:  BCF    03.5
0C39:  BCF    05.2
....................                     output_low(LED3); 
0C3A:  BSF    03.5
0C3B:  BCF    05.3
0C3C:  BCF    03.5
0C3D:  BCF    05.3
....................                     output_low(LED4); 
0C3E:  BSF    03.5
0C3F:  BCF    05.4
0C40:  BCF    03.5
0C41:  BCF    05.4
....................                     output_low(LED5); 
0C42:  BSF    03.5
0C43:  BCF    05.5
0C44:  BCF    03.5
0C45:  BCF    05.5
....................                     output_low(LED6); 
0C46:  BSF    03.5
0C47:  BCF    05.6
0C48:  BCF    03.5
0C49:  BCF    05.6
....................                     output_high(LED7); 
0C4A:  BSF    03.5
0C4B:  BCF    05.7
0C4C:  BCF    03.5
0C4D:  BSF    05.7
0C4E:  BSF    03.5
....................                 } 
....................             } 
....................             if (elapsed_time > 7000) { // 8s, dieu chinh flag_coi, dao nguoc gia tri flag_coi 
0C4F:  MOVF   55,W
0C50:  SUBLW  1A
0C51:  BTFSC  03.0
0C52:  GOTO   4A5
0C53:  XORLW  FF
0C54:  BTFSS  03.2
0C55:  GOTO   45A
0C56:  MOVF   54,W
0C57:  SUBLW  58
0C58:  BTFSC  03.0
0C59:  GOTO   4A5
....................                 flag_coi = ~flag_coi; 
0C5A:  MOVLW  02
0C5B:  BCF    03.5
0C5C:  XORWF  33,F
....................                 if (flag_coi == 1) { 
0C5D:  BTFSS  33.1
0C5E:  GOTO   491
....................                     output_high(S_COI); delay_ms(500); output_low(S_COI); delay_ms(500); output_high(S_COI); delay_ms(500); output_low(S_COI); 
0C5F:  BSF    03.5
0C60:  BCF    08.6
0C61:  BCF    03.5
0C62:  BSF    08.6
0C63:  MOVLW  02
0C64:  BSF    03.5
0C65:  MOVWF  56
0C66:  MOVLW  FA
0C67:  MOVWF  57
0C68:  BCF    0A.3
0C69:  BCF    03.5
0C6A:  CALL   285
0C6B:  BSF    0A.3
0C6C:  BSF    03.5
0C6D:  DECFSZ 56,F
0C6E:  GOTO   466
0C6F:  BCF    08.6
0C70:  BCF    03.5
0C71:  BCF    08.6
0C72:  MOVLW  02
0C73:  BSF    03.5
0C74:  MOVWF  56
0C75:  MOVLW  FA
0C76:  MOVWF  57
0C77:  BCF    0A.3
0C78:  BCF    03.5
0C79:  CALL   285
0C7A:  BSF    0A.3
0C7B:  BSF    03.5
0C7C:  DECFSZ 56,F
0C7D:  GOTO   475
0C7E:  BCF    08.6
0C7F:  BCF    03.5
0C80:  BSF    08.6
0C81:  MOVLW  02
0C82:  BSF    03.5
0C83:  MOVWF  56
0C84:  MOVLW  FA
0C85:  MOVWF  57
0C86:  BCF    0A.3
0C87:  BCF    03.5
0C88:  CALL   285
0C89:  BSF    0A.3
0C8A:  BSF    03.5
0C8B:  DECFSZ 56,F
0C8C:  GOTO   484
0C8D:  BCF    08.6
0C8E:  BCF    03.5
0C8F:  BCF    08.6
....................                 } else { 
0C90:  GOTO   4A4
....................                     output_high(S_COI); delay_ms(2000); output_low(S_COI); 
0C91:  BSF    03.5
0C92:  BCF    08.6
0C93:  BCF    03.5
0C94:  BSF    08.6
0C95:  MOVLW  08
0C96:  BSF    03.5
0C97:  MOVWF  56
0C98:  MOVLW  FA
0C99:  MOVWF  57
0C9A:  BCF    0A.3
0C9B:  BCF    03.5
0C9C:  CALL   285
0C9D:  BSF    0A.3
0C9E:  BSF    03.5
0C9F:  DECFSZ 56,F
0CA0:  GOTO   498
0CA1:  BCF    08.6
0CA2:  BCF    03.5
0CA3:  BCF    08.6
0CA4:  BSF    03.5
....................                 } 
....................             } 
....................         } 
....................     } 
0CA5:  BCF    03.5
0CA6:  BSF    0A.3
0CA7:  BCF    0A.4
0CA8:  GOTO   722 (RETURN)
.................... } 
....................  
.................... // Tu dong dieu chinh thoi gian vao chu nhat hang tuan luc 00:00:30 
.................... // Neu gia tri time_offset la 0 thi khong can dieu chinh, neu gia tri time_offset khac 0 thi dieu chinh thoi gian theo time_offset 
.................... // Neu chay nhanh chinh (dau am, tang do lon) 
.................... // Neu chay cham chinh (dau duong, tang do lon) 
.................... void Adjust_Time_Calendar_Auto() { 
....................     get_data(); 
*
06B0:  CALL   2EB
....................     Convert_BCD_to_Decimal(); 
06B1:  CALL   57D
....................     if ((second == 27 || second == 28 || second == 29 || second == 30 || second == 31) && minute == minute_auto && hour == hour_auto) { 
06B2:  MOVF   38,W
06B3:  SUBLW  1B
06B4:  BTFSC  03.2
06B5:  GOTO   6C6
06B6:  MOVF   38,W
06B7:  SUBLW  1C
06B8:  BTFSC  03.2
06B9:  GOTO   6C6
06BA:  MOVF   38,W
06BB:  SUBLW  1D
06BC:  BTFSC  03.2
06BD:  GOTO   6C6
06BE:  MOVF   38,W
06BF:  SUBLW  1E
06C0:  BTFSC  03.2
06C1:  GOTO   6C6
06C2:  MOVF   38,W
06C3:  SUBLW  1F
06C4:  BTFSS  03.2
06C5:  GOTO   702
06C6:  MOVF   3F,W
06C7:  SUBWF  39,W
06C8:  BTFSS  03.2
06C9:  GOTO   702
06CA:  MOVF   40,W
06CB:  SUBWF  3A,W
06CC:  BTFSS  03.2
06CD:  GOTO   702
....................         // Doc gia tri time_offset tu EEPROM 
....................         offset_sign = read_eeprom(254); // 0: negative, 1: positive 
06CE:  MOVLW  FE
06CF:  BSF    03.6
06D0:  MOVWF  0D
06D1:  BSF    03.5
06D2:  BCF    0C.7
06D3:  BSF    0C.0
06D4:  BCF    03.5
06D5:  MOVF   0C,W
06D6:  BCF    03.6
06D7:  MOVWF  54
....................         offset_value = read_eeprom(255); 
06D8:  MOVLW  FF
06D9:  BSF    03.6
06DA:  MOVWF  0D
06DB:  BSF    03.5
06DC:  BCF    0C.7
06DD:  BSF    0C.0
06DE:  BCF    03.5
06DF:  MOVF   0C,W
06E0:  BCF    03.6
06E1:  MOVWF  55
....................         if (offset_value != 0) { 
06E2:  MOVF   55,F
06E3:  BTFSC  03.2
06E4:  GOTO   702
....................             if (offset_sign == 0) { 
06E5:  MOVF   54,F
06E6:  BTFSS  03.2
06E7:  GOTO   6EB
....................                 second = second - offset_value; // offset âm, nhanh hon thuc te 
06E8:  MOVF   55,W
06E9:  SUBWF  38,F
....................             } else { 
06EA:  GOTO   6ED
....................                 second = second + offset_value; // offset duong, cham hon thuc te 
06EB:  MOVF   55,W
06EC:  ADDWF  38,F
....................             } 
....................             Convert_Decimal_to_BCD(); 
06ED:  CALL   619
....................             ds1307_write(0x00, second); 
06EE:  BSF    03.5
06EF:  CLRF   56
06F0:  BCF    03.5
06F1:  MOVF   38,W
06F2:  BSF    03.5
06F3:  MOVWF  57
06F4:  BCF    03.5
06F5:  CALL   200
....................             delay_ms(36000); 
06F6:  MOVLW  90
06F7:  BSF    03.5
06F8:  MOVWF  54
06F9:  MOVLW  FA
06FA:  MOVWF  57
06FB:  BCF    03.5
06FC:  CALL   285
06FD:  BSF    03.5
06FE:  DECFSZ 54,F
06FF:  GOTO   6F9
....................             get_data(); 
0700:  BCF    03.5
0701:  CALL   2EB
....................         } 
....................     } 
0702:  BSF    0A.3
0703:  BCF    0A.4
0704:  GOTO   724 (RETURN)
.................... } 
....................  
.................... void xuat_1byte(unsigned int8 bytexuat) 
.................... { 
....................  
....................     unsigned int8 i; 
....................  
....................     for (i = 0; i < 8; i++) 
*
03D6:  BSF    03.6
03D7:  CLRF   11
03D8:  MOVF   11,W
03D9:  SUBLW  07
03DA:  BTFSS  03.0
03DB:  GOTO   3FB
....................     { 
....................         output_bit(SER, (bytexuat & 0x80) ? 1 : 0); // Ghi bit MSB truoc, xuat tu trai sang phai 
03DC:  BTFSS  10.7
03DD:  GOTO   3E0
03DE:  MOVLW  01
03DF:  GOTO   3E1
03E0:  MOVLW  00
03E1:  XORLW  00
03E2:  BTFSS  03.2
03E3:  GOTO   3E8
03E4:  BCF    03.6
03E5:  BCF    08.0
03E6:  GOTO   3EA
03E7:  BSF    03.6
03E8:  BCF    03.6
03E9:  BSF    08.0
03EA:  BSF    03.5
03EB:  BCF    08.0
....................         output_low(SCK); 
03EC:  BCF    08.2
03ED:  BCF    03.5
03EE:  BCF    08.2
....................         delay_us(3); // delay nho de dam bao xung du dai tren phan cung, co the bo phan nay 
03EF:  GOTO   3F0
03F0:  GOTO   3F1
03F1:  GOTO   3F2
....................         output_high(SCK); 
03F2:  BSF    03.5
03F3:  BCF    08.2
03F4:  BCF    03.5
03F5:  BSF    08.2
....................         bytexuat = bytexuat << 1; 
03F6:  BCF    03.0
03F7:  BSF    03.6
03F8:  RLF    10,F
03F9:  INCF   11,F
03FA:  GOTO   3D8
....................     } 
03FB:  BCF    03.6
03FC:  RETURN
.................... } 
....................  
.................... void latch() 
.................... { 
....................     output_low(RCK); // Chốt dữ liệu 
*
04E0:  BSF    03.5
04E1:  BCF    08.4
04E2:  BCF    03.5
04E3:  BCF    08.4
....................     delay_us(3); 
04E4:  GOTO   4E5
04E5:  GOTO   4E6
04E6:  GOTO   4E7
....................     output_high(RCK); // Chốt dữ liệu 
04E7:  BSF    03.5
04E8:  BCF    08.4
04E9:  BCF    03.5
04EA:  BSF    08.4
.................... } 
....................  
.................... void xuat_4byte_latch(unsigned int32 xuat4byte) 
.................... { 
....................     unsigned int8 byte3, byte2, byte1, byte0; 
....................      
....................     byte0 = (unsigned int8)(xuat4byte & 0x000000FF); 
*
0487:  CLRF   78
0488:  CLRF   79
0489:  CLRF   7A
048A:  MOVF   65,W
048B:  MOVWF  6C
....................     byte1 = (unsigned int8)((xuat4byte >> 8) & 0x000000FF); 
048C:  MOVF   66,W
048D:  BCF    03.5
048E:  BSF    03.6
048F:  MOVWF  11
0490:  BSF    03.5
0491:  BCF    03.6
0492:  MOVF   67,W
0493:  BCF    03.5
0494:  BSF    03.6
0495:  MOVWF  12
0496:  BSF    03.5
0497:  BCF    03.6
0498:  MOVF   68,W
0499:  BCF    03.5
049A:  BSF    03.6
049B:  MOVWF  13
049C:  CLRF   14
049D:  CLRF   78
049E:  CLRF   79
049F:  CLRF   7A
04A0:  MOVF   11,W
04A1:  BSF    03.5
04A2:  BCF    03.6
04A3:  MOVWF  6B
....................     byte2 = (unsigned int8)((xuat4byte >> 16) & 0x000000FF); 
04A4:  MOVF   67,W
04A5:  BCF    03.5
04A6:  BSF    03.6
04A7:  MOVWF  11
04A8:  BSF    03.5
04A9:  BCF    03.6
04AA:  MOVF   68,W
04AB:  BCF    03.5
04AC:  BSF    03.6
04AD:  MOVWF  12
04AE:  CLRF   13
04AF:  CLRF   14
04B0:  CLRF   78
04B1:  CLRF   79
04B2:  CLRF   7A
04B3:  MOVF   11,W
04B4:  BSF    03.5
04B5:  BCF    03.6
04B6:  MOVWF  6A
....................     byte3 = (unsigned int8)((xuat4byte >> 24) & 0x000000FF); 
04B7:  MOVF   68,W
04B8:  BCF    03.5
04B9:  BSF    03.6
04BA:  MOVWF  11
04BB:  CLRF   12
04BC:  CLRF   13
04BD:  CLRF   14
04BE:  CLRF   78
04BF:  CLRF   79
04C0:  CLRF   7A
04C1:  MOVF   11,W
04C2:  BSF    03.5
04C3:  BCF    03.6
04C4:  MOVWF  69
....................  
....................     xuat_1byte(byte3); // Xuat byte cao nhat truoc, xuat tu trai sang phai 
04C5:  MOVF   69,W
04C6:  BCF    03.5
04C7:  BSF    03.6
04C8:  MOVWF  10
04C9:  BCF    03.6
04CA:  CALL   3D6
....................     xuat_1byte(byte2); 
04CB:  BSF    03.5
04CC:  MOVF   6A,W
04CD:  BCF    03.5
04CE:  BSF    03.6
04CF:  MOVWF  10
04D0:  BCF    03.6
04D1:  CALL   3D6
....................     xuat_1byte(byte1); 
04D2:  BSF    03.5
04D3:  MOVF   6B,W
04D4:  BCF    03.5
04D5:  BSF    03.6
04D6:  MOVWF  10
04D7:  BCF    03.6
04D8:  CALL   3D6
....................     xuat_1byte(byte0); 
04D9:  BSF    03.5
04DA:  MOVF   6C,W
04DB:  BCF    03.5
04DC:  BSF    03.6
04DD:  MOVWF  10
04DE:  BCF    03.6
04DF:  CALL   3D6
....................      
....................     latch(); 
.................... } 
....................  
.................... void HienThiVal(unsigned int8 Val[16]) // moi lan chay ham mat 8ms 
.................... { 
....................     unsigned int32 value; 
....................     for (int8 i = 0; i < 16; i++) 
*
0419:  CLRF   64
041A:  MOVF   64,W
041B:  SUBLW  0F
041C:  BTFSS  03.0
041D:  GOTO   504
....................     { 
....................         if (i < 8) 
041E:  MOVF   64,W
041F:  SUBLW  07
0420:  BTFSS  03.0
0421:  GOTO   455
....................             value = (unsigned int32)Val[i] << 24 | (unsigned int32)DichCot[i] << 16 & (unsigned int32)0xffffff00;  
0422:  MOVF   64,W
0423:  ADDWF  5E,W
0424:  MOVWF  04
0425:  BCF    03.7
0426:  BTFSC  5F.0
0427:  BSF    03.7
0428:  MOVF   00,W
0429:  CLRF   68
042A:  CLRF   67
042B:  CLRF   66
042C:  MOVWF  65
042D:  MOVWF  68
042E:  CLRF   65
042F:  CLRF   66
0430:  CLRF   67
0431:  MOVF   64,W
0432:  BCF    03.5
0433:  CALL   046
0434:  MOVWF  78
0435:  BSF    03.5
0436:  CLRF   6D
0437:  CLRF   6C
0438:  CLRF   6B
0439:  MOVF   78,W
043A:  MOVWF  6A
043B:  MOVF   6B,W
043C:  MOVWF  6D
043D:  MOVF   6A,W
043E:  MOVWF  6C
043F:  CLRF   6A
0440:  CLRF   6B
0441:  CLRF   77
0442:  MOVF   6B,W
0443:  MOVWF  78
0444:  MOVF   6C,W
0445:  MOVWF  79
0446:  MOVF   6D,W
0447:  MOVWF  7A
0448:  MOVF   77,W
0449:  IORWF  65,W
044A:  MOVWF  60
044B:  MOVF   78,W
044C:  IORWF  66,W
044D:  MOVWF  61
044E:  MOVF   79,W
044F:  IORWF  67,W
0450:  MOVWF  62
0451:  MOVF   7A,W
0452:  IORWF  68,W
0453:  MOVWF  63
0454:  GOTO   47F
....................             // Dich cot tu trai sang phai, bit 24-31 la gia tri led 7 doan, bit 16-23 la dich cot, bit 0-15 la 0 
....................         else 
....................             value = (unsigned int32)Val[i] << 8 | (unsigned int32)DichCot[i] & (unsigned int32)0xff00ffff; 
0455:  MOVF   64,W
0456:  ADDWF  5E,W
0457:  MOVWF  04
0458:  BCF    03.7
0459:  BTFSC  5F.0
045A:  BSF    03.7
045B:  MOVF   00,W
045C:  CLRF   68
045D:  CLRF   67
045E:  CLRF   66
045F:  MOVWF  65
0460:  MOVF   67,W
0461:  MOVWF  68
0462:  MOVF   66,W
0463:  MOVWF  67
0464:  MOVF   65,W
0465:  MOVWF  66
0466:  CLRF   65
0467:  MOVF   64,W
0468:  BCF    03.5
0469:  CALL   046
046A:  MOVWF  78
046B:  BSF    03.5
046C:  CLRF   6D
046D:  CLRF   6C
046E:  CLRF   6B
046F:  MOVF   78,W
0470:  MOVWF  6A
0471:  MOVWF  77
0472:  CLRF   79
0473:  MOVF   77,W
0474:  IORWF  65,W
0475:  MOVWF  60
0476:  MOVF   6B,W
0477:  IORWF  66,W
0478:  MOVWF  61
0479:  MOVF   79,W
047A:  IORWF  67,W
047B:  MOVWF  62
047C:  MOVF   6D,W
047D:  IORWF  68,W
047E:  MOVWF  63
....................             // Dich cot tu trai sang phai, bit 8-15 la gia tri led 7 doan, bit 0-7 la dich cot, bit 16-31 la 0 
....................         xuat_4byte_latch(value); 
047F:  MOVF   63,W
0480:  MOVWF  68
0481:  MOVF   62,W
0482:  MOVWF  67
0483:  MOVF   61,W
0484:  MOVWF  66
0485:  MOVF   60,W
0486:  MOVWF  65
....................         delay_us(500); 
*
04EB:  MOVLW  02
04EC:  BSF    03.5
04ED:  MOVWF  65
04EE:  MOVLW  F8
04EF:  MOVWF  66
*
0500:  DECFSZ 65,F
0501:  GOTO   4EE
0502:  INCF   64,F
0503:  GOTO   41A
....................     } 
.................... } 
....................  
.................... void HienThiVal_With_Delay(unsigned int8 Val[16], unsigned int16 delay_time) // delay_time so lan chay ham HienThiVal 
.................... ////////////////////////////////////////  USE  //////////////////////////////////////// 
.................... //                                                                                   // 
.................... //        time = 0.5; // Seconds to display                                          // 
.................... //        delay_time = (time * 1000 / 8); // 8 = 16 * 0.5, 8 ms                      // 
.................... //        delay_time = 63 lan                                                        // 
.................... //                                                                                   // 
.................... //////////////////////////////////////  END USE  ////////////////////////////////////// 
.................... { 
....................     while (delay_time-- > 0) 
*
03FD:  BSF    03.5
03FE:  MOVF   5B,W
03FF:  MOVWF  7A
0400:  MOVF   5A,W
0401:  BTFSC  03.2
0402:  DECF   5B,F
0403:  DECF   5A,F
0404:  MOVWF  5C
0405:  MOVF   7A,W
0406:  MOVWF  5D
0407:  MOVF   5C,F
0408:  BTFSS  03.2
0409:  GOTO   40D
040A:  MOVF   5D,F
040B:  BTFSC  03.2
040C:  GOTO   505
....................     { 
....................         HienThiVal(Val); 
040D:  MOVF   58,W
040E:  MOVWF  78
040F:  MOVF   59,W
0410:  MOVWF  7A
0411:  MOVF   78,W
0412:  MOVWF  5C
0413:  MOVF   7A,W
0414:  MOVWF  5D
0415:  MOVF   5D,W
0416:  MOVWF  5F
0417:  MOVF   5C,W
0418:  MOVWF  5E
*
0504:  GOTO   3FE
....................     } 
0505:  BCF    03.5
0506:  RETURN
.................... } 
....................  
.................... void HienThiVal_With_Delay_number(unsigned int16 delay_time, unsigned int8 number) 
.................... { 
....................     while (number > 0) 
0507:  BSF    03.5
0508:  MOVF   56,F
0509:  BTFSC  03.2
050A:  GOTO   53E
....................     { 
....................         unsigned int8 i; 
....................         get_data(); 
050B:  BCF    03.5
050C:  CALL   2EB
....................         for (i = 0; i < 8; i++) 
050D:  BSF    03.5
050E:  CLRF   57
050F:  MOVF   57,W
0510:  SUBLW  07
0511:  BTFSS  03.0
0512:  GOTO   532
....................         { 
....................             ValHienThi[i] = vmsg_pattern[pos + 7 - i]; 
0513:  MOVLW  43
0514:  ADDWF  57,W
0515:  MOVWF  78
0516:  CLRF   7A
0517:  BTFSC  03.0
0518:  INCF   7A,F
0519:  MOVF   78,W
051A:  MOVWF  58
051B:  MOVF   7A,W
051C:  MOVWF  59
051D:  MOVLW  07
051E:  BCF    03.5
051F:  ADDWF  53,W
0520:  MOVWF  78
0521:  BSF    03.5
0522:  MOVF   57,W
0523:  SUBWF  78,W
0524:  ADDLW  A0
0525:  MOVWF  04
0526:  BCF    03.7
0527:  MOVF   00,W
0528:  MOVWF  5A
0529:  MOVF   58,W
052A:  MOVWF  04
052B:  BCF    03.7
052C:  BTFSC  59.0
052D:  BSF    03.7
052E:  MOVF   5A,W
052F:  MOVWF  00
0530:  INCF   57,F
0531:  GOTO   50F
....................         } 
....................         HienThiVal_With_Delay(ValHienThi, delay_time); 
0532:  CLRF   59
0533:  MOVLW  43
0534:  MOVWF  58
0535:  MOVF   55,W
0536:  MOVWF  5B
0537:  MOVF   54,W
0538:  MOVWF  5A
0539:  BCF    03.5
053A:  CALL   3FD
....................         number--; 
053B:  BSF    03.5
053C:  DECF   56,F
053D:  GOTO   508
....................     }  
053E:  BCF    03.5
053F:  BSF    0A.3
0540:  BCF    0A.4
0541:  GOTO   71B (RETURN)
.................... } 
....................  
.................... void bao_thoi_gian() 
.................... { 
....................     get_data(); 
*
0CA9:  BCF    0A.3
0CAA:  CALL   2EB
0CAB:  BSF    0A.3
....................     Convert_BCD_to_Decimal(); 
0CAC:  BCF    0A.3
0CAD:  CALL   57D
0CAE:  BSF    0A.3
....................     if ((second == 0 || second == 1 || second == 2 || second == 3 || second == 4) && (minute == 0) && (hour == 12 || hour == 18)) 
0CAF:  MOVF   38,F
0CB0:  BTFSC  03.2
0CB1:  GOTO   4C1
0CB2:  DECFSZ 38,W
0CB3:  GOTO   4B5
0CB4:  GOTO   4C1
0CB5:  MOVF   38,W
0CB6:  SUBLW  02
0CB7:  BTFSC  03.2
0CB8:  GOTO   4C1
0CB9:  MOVF   38,W
0CBA:  SUBLW  03
0CBB:  BTFSC  03.2
0CBC:  GOTO   4C1
0CBD:  MOVF   38,W
0CBE:  SUBLW  04
0CBF:  BTFSS  03.2
0CC0:  GOTO   53E
0CC1:  MOVF   39,F
0CC2:  BTFSS  03.2
0CC3:  GOTO   53E
0CC4:  MOVF   3A,W
0CC5:  SUBLW  0C
0CC6:  BTFSC  03.2
0CC7:  GOTO   4CC
0CC8:  MOVF   3A,W
0CC9:  SUBLW  12
0CCA:  BTFSS  03.2
0CCB:  GOTO   53E
....................     { 
....................         delay_ms(1000); 
0CCC:  MOVLW  04
0CCD:  BSF    03.5
0CCE:  MOVWF  56
0CCF:  MOVLW  FA
0CD0:  MOVWF  57
0CD1:  BCF    0A.3
0CD2:  BCF    03.5
0CD3:  CALL   285
0CD4:  BSF    0A.3
0CD5:  BSF    03.5
0CD6:  DECFSZ 56,F
0CD7:  GOTO   4CF
....................         for (int8 i = 0; i < 6; i++) 
0CD8:  CLRF   54
0CD9:  MOVF   54,W
0CDA:  SUBLW  05
0CDB:  BTFSS  03.0
0CDC:  GOTO   53D
....................         { 
....................             output_high(LED0); 
0CDD:  BCF    05.0
0CDE:  BCF    03.5
0CDF:  BSF    05.0
....................             output_high(LED1); 
0CE0:  BSF    03.5
0CE1:  BCF    05.1
0CE2:  BCF    03.5
0CE3:  BSF    05.1
....................             output_high(LED2); 
0CE4:  BSF    03.5
0CE5:  BCF    05.2
0CE6:  BCF    03.5
0CE7:  BSF    05.2
....................             output_high(LED3); 
0CE8:  BSF    03.5
0CE9:  BCF    05.3
0CEA:  BCF    03.5
0CEB:  BSF    05.3
....................             output_high(LED4); 
0CEC:  BSF    03.5
0CED:  BCF    05.4
0CEE:  BCF    03.5
0CEF:  BSF    05.4
....................             output_high(LED5); 
0CF0:  BSF    03.5
0CF1:  BCF    05.5
0CF2:  BCF    03.5
0CF3:  BSF    05.5
....................             output_high(LED6); 
0CF4:  BSF    03.5
0CF5:  BCF    05.6
0CF6:  BCF    03.5
0CF7:  BSF    05.6
....................             output_high(LED7); 
0CF8:  BSF    03.5
0CF9:  BCF    05.7
0CFA:  BCF    03.5
0CFB:  BSF    05.7
....................             output_high(S_COI); 
0CFC:  BSF    03.5
0CFD:  BCF    08.6
0CFE:  BCF    03.5
0CFF:  BSF    08.6
....................             delay_ms(500); 
0D00:  MOVLW  02
0D01:  BSF    03.5
0D02:  MOVWF  56
0D03:  MOVLW  FA
0D04:  MOVWF  57
0D05:  BCF    0A.3
0D06:  BCF    03.5
0D07:  CALL   285
0D08:  BSF    0A.3
0D09:  BSF    03.5
0D0A:  DECFSZ 56,F
0D0B:  GOTO   503
....................             output_low(LED0); 
0D0C:  BCF    05.0
0D0D:  BCF    03.5
0D0E:  BCF    05.0
....................             output_low(LED1); 
0D0F:  BSF    03.5
0D10:  BCF    05.1
0D11:  BCF    03.5
0D12:  BCF    05.1
....................             output_low(LED2); 
0D13:  BSF    03.5
0D14:  BCF    05.2
0D15:  BCF    03.5
0D16:  BCF    05.2
....................             output_low(LED3); 
0D17:  BSF    03.5
0D18:  BCF    05.3
0D19:  BCF    03.5
0D1A:  BCF    05.3
....................             output_low(LED4); 
0D1B:  BSF    03.5
0D1C:  BCF    05.4
0D1D:  BCF    03.5
0D1E:  BCF    05.4
....................             output_low(LED5); 
0D1F:  BSF    03.5
0D20:  BCF    05.5
0D21:  BCF    03.5
0D22:  BCF    05.5
....................             output_low(LED6); 
0D23:  BSF    03.5
0D24:  BCF    05.6
0D25:  BCF    03.5
0D26:  BCF    05.6
....................             output_low(LED7); 
0D27:  BSF    03.5
0D28:  BCF    05.7
0D29:  BCF    03.5
0D2A:  BCF    05.7
....................             output_low(S_COI); 
0D2B:  BSF    03.5
0D2C:  BCF    08.6
0D2D:  BCF    03.5
0D2E:  BCF    08.6
....................             delay_ms(500); 
0D2F:  MOVLW  02
0D30:  BSF    03.5
0D31:  MOVWF  56
0D32:  MOVLW  FA
0D33:  MOVWF  57
0D34:  BCF    0A.3
0D35:  BCF    03.5
0D36:  CALL   285
0D37:  BSF    0A.3
0D38:  BSF    03.5
0D39:  DECFSZ 56,F
0D3A:  GOTO   532
0D3B:  INCF   54,F
0D3C:  GOTO   4D9
0D3D:  BCF    03.5
....................         } 
....................     } 
....................     if ((second == 0 || second == 1 || second == 2 || second == 3 || second == 4) && (minute == 0) && ((hour >= 6 && hour <= 11) || (hour >= 13 && hour <= 17))) 
0D3E:  MOVF   38,F
0D3F:  BTFSC  03.2
0D40:  GOTO   550
0D41:  DECFSZ 38,W
0D42:  GOTO   544
0D43:  GOTO   550
0D44:  MOVF   38,W
0D45:  SUBLW  02
0D46:  BTFSC  03.2
0D47:  GOTO   550
0D48:  MOVF   38,W
0D49:  SUBLW  03
0D4A:  BTFSC  03.2
0D4B:  GOTO   550
0D4C:  MOVF   38,W
0D4D:  SUBLW  04
0D4E:  BTFSS  03.2
0D4F:  GOTO   5D5
0D50:  MOVF   39,F
0D51:  BTFSS  03.2
0D52:  GOTO   5D5
0D53:  MOVF   3A,W
0D54:  SUBLW  05
0D55:  BTFSC  03.0
0D56:  GOTO   55B
0D57:  MOVF   3A,W
0D58:  SUBLW  0B
0D59:  BTFSC  03.0
0D5A:  GOTO   563
0D5B:  MOVF   3A,W
0D5C:  SUBLW  0C
0D5D:  BTFSC  03.0
0D5E:  GOTO   5D5
0D5F:  MOVF   3A,W
0D60:  SUBLW  11
0D61:  BTFSS  03.0
0D62:  GOTO   5D5
....................     { 
....................         delay_ms(1000); 
0D63:  MOVLW  04
0D64:  BSF    03.5
0D65:  MOVWF  56
0D66:  MOVLW  FA
0D67:  MOVWF  57
0D68:  BCF    0A.3
0D69:  BCF    03.5
0D6A:  CALL   285
0D6B:  BSF    0A.3
0D6C:  BSF    03.5
0D6D:  DECFSZ 56,F
0D6E:  GOTO   566
....................         for (int8 i = 0; i < 3; i++) 
0D6F:  CLRF   55
0D70:  MOVF   55,W
0D71:  SUBLW  02
0D72:  BTFSS  03.0
0D73:  GOTO   5D4
....................         { 
....................             output_high(LED0); 
0D74:  BCF    05.0
0D75:  BCF    03.5
0D76:  BSF    05.0
....................             output_high(LED1); 
0D77:  BSF    03.5
0D78:  BCF    05.1
0D79:  BCF    03.5
0D7A:  BSF    05.1
....................             output_high(LED2); 
0D7B:  BSF    03.5
0D7C:  BCF    05.2
0D7D:  BCF    03.5
0D7E:  BSF    05.2
....................             output_high(LED3); 
0D7F:  BSF    03.5
0D80:  BCF    05.3
0D81:  BCF    03.5
0D82:  BSF    05.3
....................             output_high(LED4); 
0D83:  BSF    03.5
0D84:  BCF    05.4
0D85:  BCF    03.5
0D86:  BSF    05.4
....................             output_high(LED5); 
0D87:  BSF    03.5
0D88:  BCF    05.5
0D89:  BCF    03.5
0D8A:  BSF    05.5
....................             output_high(LED6); 
0D8B:  BSF    03.5
0D8C:  BCF    05.6
0D8D:  BCF    03.5
0D8E:  BSF    05.6
....................             output_high(LED7); 
0D8F:  BSF    03.5
0D90:  BCF    05.7
0D91:  BCF    03.5
0D92:  BSF    05.7
....................             output_high(S_COI); 
0D93:  BSF    03.5
0D94:  BCF    08.6
0D95:  BCF    03.5
0D96:  BSF    08.6
....................             delay_ms(500); 
0D97:  MOVLW  02
0D98:  BSF    03.5
0D99:  MOVWF  56
0D9A:  MOVLW  FA
0D9B:  MOVWF  57
0D9C:  BCF    0A.3
0D9D:  BCF    03.5
0D9E:  CALL   285
0D9F:  BSF    0A.3
0DA0:  BSF    03.5
0DA1:  DECFSZ 56,F
0DA2:  GOTO   59A
....................             output_low(LED0); 
0DA3:  BCF    05.0
0DA4:  BCF    03.5
0DA5:  BCF    05.0
....................             output_low(LED1); 
0DA6:  BSF    03.5
0DA7:  BCF    05.1
0DA8:  BCF    03.5
0DA9:  BCF    05.1
....................             output_low(LED2); 
0DAA:  BSF    03.5
0DAB:  BCF    05.2
0DAC:  BCF    03.5
0DAD:  BCF    05.2
....................             output_low(LED3); 
0DAE:  BSF    03.5
0DAF:  BCF    05.3
0DB0:  BCF    03.5
0DB1:  BCF    05.3
....................             output_low(LED4); 
0DB2:  BSF    03.5
0DB3:  BCF    05.4
0DB4:  BCF    03.5
0DB5:  BCF    05.4
....................             output_low(LED5); 
0DB6:  BSF    03.5
0DB7:  BCF    05.5
0DB8:  BCF    03.5
0DB9:  BCF    05.5
....................             output_low(LED6); 
0DBA:  BSF    03.5
0DBB:  BCF    05.6
0DBC:  BCF    03.5
0DBD:  BCF    05.6
....................             output_low(LED7); 
0DBE:  BSF    03.5
0DBF:  BCF    05.7
0DC0:  BCF    03.5
0DC1:  BCF    05.7
....................             output_low(S_COI); 
0DC2:  BSF    03.5
0DC3:  BCF    08.6
0DC4:  BCF    03.5
0DC5:  BCF    08.6
....................             delay_ms(500); 
0DC6:  MOVLW  02
0DC7:  BSF    03.5
0DC8:  MOVWF  56
0DC9:  MOVLW  FA
0DCA:  MOVWF  57
0DCB:  BCF    0A.3
0DCC:  BCF    03.5
0DCD:  CALL   285
0DCE:  BSF    0A.3
0DCF:  BSF    03.5
0DD0:  DECFSZ 56,F
0DD1:  GOTO   5C9
0DD2:  INCF   55,F
0DD3:  GOTO   570
0DD4:  BCF    03.5
....................         } 
....................     } 
....................     Convert_Decimal_to_BCD(); 
0DD5:  BCF    0A.3
0DD6:  CALL   619
0DD7:  BSF    0A.3
....................     output_high(LED0); 
0DD8:  BSF    03.5
0DD9:  BCF    05.0
0DDA:  BCF    03.5
0DDB:  BSF    05.0
....................     output_low(LED1); 
0DDC:  BSF    03.5
0DDD:  BCF    05.1
0DDE:  BCF    03.5
0DDF:  BCF    05.1
....................     output_low(LED2); 
0DE0:  BSF    03.5
0DE1:  BCF    05.2
0DE2:  BCF    03.5
0DE3:  BCF    05.2
....................     output_low(LED3); 
0DE4:  BSF    03.5
0DE5:  BCF    05.3
0DE6:  BCF    03.5
0DE7:  BCF    05.3
....................     output_low(LED4); 
0DE8:  BSF    03.5
0DE9:  BCF    05.4
0DEA:  BCF    03.5
0DEB:  BCF    05.4
....................     output_low(LED5); 
0DEC:  BSF    03.5
0DED:  BCF    05.5
0DEE:  BCF    03.5
0DEF:  BCF    05.5
....................     output_low(LED6); 
0DF0:  BSF    03.5
0DF1:  BCF    05.6
0DF2:  BCF    03.5
0DF3:  BCF    05.6
....................     output_high(LED7); 
0DF4:  BSF    03.5
0DF5:  BCF    05.7
0DF6:  BCF    03.5
0DF7:  BSF    05.7
....................     output_low(S_COI); 
0DF8:  BSF    03.5
0DF9:  BCF    08.6
0DFA:  BCF    03.5
0DFB:  BCF    08.6
0DFC:  BSF    0A.3
0DFD:  BCF    0A.4
0DFE:  GOTO   727 (RETURN)
.................... } 
....................  
.................... void get_data() 
.................... { 
....................     i2c_start(); 
*
02EB:  BSF    2D.4
02EC:  MOVF   2D,W
02ED:  BSF    03.5
02EE:  MOVWF  07
02EF:  NOP
02F0:  BCF    03.5
02F1:  BSF    2D.3
02F2:  MOVF   2D,W
02F3:  BSF    03.5
02F4:  MOVWF  07
02F5:  NOP
02F6:  BCF    03.5
02F7:  BCF    07.4
02F8:  BCF    2D.4
02F9:  MOVF   2D,W
02FA:  BSF    03.5
02FB:  MOVWF  07
02FC:  NOP
02FD:  BCF    03.5
02FE:  BCF    07.3
02FF:  BCF    2D.3
0300:  MOVF   2D,W
0301:  BSF    03.5
0302:  MOVWF  07
....................     i2c_write(0xD0); 
0303:  MOVLW  D0
0304:  MOVWF  58
0305:  BCF    03.5
0306:  CALL   1B6
....................     i2c_write(0x00); 
0307:  BSF    03.5
0308:  CLRF   58
0309:  BCF    03.5
030A:  CALL   1B6
....................     i2c_start(); 
030B:  BSF    2D.4
030C:  MOVF   2D,W
030D:  BSF    03.5
030E:  MOVWF  07
030F:  NOP
0310:  BCF    03.5
0311:  BSF    2D.3
0312:  MOVF   2D,W
0313:  BSF    03.5
0314:  MOVWF  07
0315:  NOP
0316:  BCF    03.5
0317:  BTFSS  07.3
0318:  GOTO   317
0319:  BCF    07.4
031A:  BCF    2D.4
031B:  MOVF   2D,W
031C:  BSF    03.5
031D:  MOVWF  07
031E:  NOP
031F:  BCF    03.5
0320:  BCF    07.3
0321:  BCF    2D.3
0322:  MOVF   2D,W
0323:  BSF    03.5
0324:  MOVWF  07
....................     i2c_write(0xD1); 
0325:  MOVLW  D1
0326:  MOVWF  58
0327:  BCF    03.5
0328:  CALL   1B6
....................     second = i2c_read(1); 
0329:  MOVLW  01
032A:  MOVWF  77
032B:  CALL   2A0
032C:  MOVF   78,W
032D:  MOVWF  38
....................     minute = i2c_read(1); 
032E:  MOVLW  01
032F:  MOVWF  77
0330:  CALL   2A0
0331:  MOVF   78,W
0332:  MOVWF  39
....................     hour   = i2c_read(1); 
0333:  MOVLW  01
0334:  MOVWF  77
0335:  CALL   2A0
0336:  MOVF   78,W
0337:  MOVWF  3A
....................     day    = i2c_read(1); // day of week, 1 = Sunday, 2 = Monday, ..., 7 = Saturday 
0338:  MOVLW  01
0339:  MOVWF  77
033A:  CALL   2A0
033B:  MOVF   78,W
033C:  MOVWF  3E
....................     date   = i2c_read(1); 
033D:  MOVLW  01
033E:  MOVWF  77
033F:  CALL   2A0
0340:  MOVF   78,W
0341:  MOVWF  3B
....................     month  = i2c_read(1); 
0342:  MOVLW  01
0343:  MOVWF  77
0344:  CALL   2A0
0345:  MOVF   78,W
0346:  MOVWF  3C
....................     year   = i2c_read(0); 
0347:  CLRF   77
0348:  CALL   2A0
0349:  MOVF   78,W
034A:  MOVWF  3D
....................     i2c_stop(); 
034B:  BCF    2D.4
034C:  MOVF   2D,W
034D:  BSF    03.5
034E:  MOVWF  07
034F:  NOP
0350:  BCF    03.5
0351:  BSF    2D.3
0352:  MOVF   2D,W
0353:  BSF    03.5
0354:  MOVWF  07
0355:  BCF    03.5
0356:  BTFSS  07.3
0357:  GOTO   356
0358:  NOP
0359:  GOTO   35A
035A:  NOP
035B:  BSF    2D.4
035C:  MOVF   2D,W
035D:  BSF    03.5
035E:  MOVWF  07
035F:  NOP
....................  
....................     vmsg_pattern[8] = MaLed7Doan[date / 16]; 
0360:  BCF    03.5
0361:  SWAPF  3B,W
0362:  MOVWF  77
0363:  MOVLW  0F
0364:  ANDWF  77,F
0365:  MOVF   77,W
0366:  CALL   038
0367:  MOVWF  78
0368:  BSF    03.5
0369:  MOVWF  28
....................     vmsg_pattern[9] = MaLed7Doan[date % 16] & 0x7f; // dot 
036A:  BCF    03.5
036B:  MOVF   3B,W
036C:  ANDLW  0F
036D:  CALL   038
036E:  ANDLW  7F
036F:  BSF    03.5
0370:  MOVWF  29
....................     vmsg_pattern[10] = MaLed7Doan[month / 16]; 
0371:  BCF    03.5
0372:  SWAPF  3C,W
0373:  MOVWF  77
0374:  MOVLW  0F
0375:  ANDWF  77,F
0376:  MOVF   77,W
0377:  CALL   038
0378:  MOVWF  78
0379:  BSF    03.5
037A:  MOVWF  2A
....................     vmsg_pattern[11] = MaLed7Doan[month % 16] & 0x7f; // dot 
037B:  BCF    03.5
037C:  MOVF   3C,W
037D:  ANDLW  0F
037E:  CALL   038
037F:  ANDLW  7F
0380:  BSF    03.5
0381:  MOVWF  2B
....................     vmsg_pattern[12] = MaLed7Doan[2]; 
0382:  MOVLW  A4
0383:  MOVWF  2C
....................     vmsg_pattern[13] = MaLed7Doan[0]; 
0384:  MOVLW  C0
0385:  MOVWF  2D
....................     vmsg_pattern[14] = MaLed7Doan[year / 16]; 
0386:  BCF    03.5
0387:  SWAPF  3D,W
0388:  MOVWF  77
0389:  MOVLW  0F
038A:  ANDWF  77,F
038B:  MOVF   77,W
038C:  CALL   038
038D:  MOVWF  78
038E:  BSF    03.5
038F:  MOVWF  2E
....................     vmsg_pattern[15] = MaLed7Doan[year % 16]; 
0390:  BCF    03.5
0391:  MOVF   3D,W
0392:  ANDLW  0F
0393:  CALL   038
0394:  MOVWF  78
0395:  BSF    03.5
0396:  MOVWF  2F
....................     if (day == 1) // cn 
0397:  BCF    03.5
0398:  DECFSZ 3E,W
0399:  GOTO   3A1
....................     { 
....................         vmsg_pattern[22] = 0xa7; 
039A:  MOVLW  A7
039B:  BSF    03.5
039C:  MOVWF  36
....................         vmsg_pattern[23] = 0xab; 
039D:  MOVLW  AB
039E:  MOVWF  37
....................     } 
039F:  GOTO   3AA
03A0:  BCF    03.5
....................     else 
....................     { 
....................         vmsg_pattern[23] = 0xff; 
03A1:  MOVLW  FF
03A2:  BSF    03.5
03A3:  MOVWF  37
....................         vmsg_pattern[22] = MaLed7Doan[day]; 
03A4:  BCF    03.5
03A5:  MOVF   3E,W
03A6:  CALL   038
03A7:  MOVWF  78
03A8:  BSF    03.5
03A9:  MOVWF  36
....................     } 
....................  
....................     ValHienThi[8] = MaLed7Doan[second % 16]; 
03AA:  BCF    03.5
03AB:  MOVF   38,W
03AC:  ANDLW  0F
03AD:  CALL   038
03AE:  MOVWF  78
03AF:  MOVWF  4B
....................     ValHienThi[9] = MaLed7Doan[second / 16]; 
03B0:  SWAPF  38,W
03B1:  MOVWF  77
03B2:  MOVLW  0F
03B3:  ANDWF  77,F
03B4:  MOVF   77,W
03B5:  CALL   038
03B6:  MOVWF  78
03B7:  MOVWF  4C
....................     ValHienThi[10] = MaLed7Doan[minute % 16] & 0x7f; // dot 
03B8:  MOVF   39,W
03B9:  ANDLW  0F
03BA:  CALL   038
03BB:  ANDLW  7F
03BC:  MOVWF  4D
....................     ValHienThi[11] = MaLed7Doan[minute / 16]; 
03BD:  SWAPF  39,W
03BE:  MOVWF  77
03BF:  MOVLW  0F
03C0:  ANDWF  77,F
03C1:  MOVF   77,W
03C2:  CALL   038
03C3:  MOVWF  78
03C4:  MOVWF  4E
....................     ValHienThi[12] = MaLed7Doan[hour % 16] & 0x7f; // dot 
03C5:  MOVF   3A,W
03C6:  ANDLW  0F
03C7:  CALL   038
03C8:  ANDLW  7F
03C9:  MOVWF  4F
....................     ValHienThi[13] = MaLed7Doan[hour / 16]; 
03CA:  SWAPF  3A,W
03CB:  MOVWF  77
03CC:  MOVLW  0F
03CD:  ANDWF  77,F
03CE:  MOVF   77,W
03CF:  CALL   038
03D0:  MOVWF  78
03D1:  MOVWF  50
....................     ValHienThi[14] = 0xFF; 
03D2:  MOVLW  FF
03D3:  MOVWF  51
....................     ValHienThi[15] = 0xFF; 
03D4:  MOVWF  52
03D5:  RETURN
.................... } 
....................  
.................... void Convert_BCD_to_Decimal() 
.................... { 
....................     second = (second >> 4) * 10 + (second & 0x0F); 
*
057D:  SWAPF  38,W
057E:  MOVWF  77
057F:  MOVLW  0F
0580:  ANDWF  77,F
0581:  MOVF   77,W
0582:  BSF    03.5
0583:  MOVWF  57
0584:  MOVWF  58
0585:  MOVLW  0A
0586:  MOVWF  59
0587:  BCF    03.5
0588:  CALL   556
0589:  MOVF   78,W
058A:  BSF    03.5
058B:  MOVWF  56
058C:  BCF    03.5
058D:  MOVF   38,W
058E:  ANDLW  0F
058F:  BSF    03.5
0590:  ADDWF  56,W
0591:  BCF    03.5
0592:  MOVWF  38
....................     minute = (minute >> 4) * 10 + (minute & 0x0F); 
0593:  SWAPF  39,W
0594:  MOVWF  77
0595:  MOVLW  0F
0596:  ANDWF  77,F
0597:  MOVF   77,W
0598:  BSF    03.5
0599:  MOVWF  57
059A:  MOVWF  58
059B:  MOVLW  0A
059C:  MOVWF  59
059D:  BCF    03.5
059E:  CALL   556
059F:  MOVF   78,W
05A0:  BSF    03.5
05A1:  MOVWF  56
05A2:  BCF    03.5
05A3:  MOVF   39,W
05A4:  ANDLW  0F
05A5:  BSF    03.5
05A6:  ADDWF  56,W
05A7:  BCF    03.5
05A8:  MOVWF  39
....................     hour   = (hour >> 4) * 10 + (hour & 0x0F); 
05A9:  SWAPF  3A,W
05AA:  MOVWF  77
05AB:  MOVLW  0F
05AC:  ANDWF  77,F
05AD:  MOVF   77,W
05AE:  BSF    03.5
05AF:  MOVWF  57
05B0:  MOVWF  58
05B1:  MOVLW  0A
05B2:  MOVWF  59
05B3:  BCF    03.5
05B4:  CALL   556
05B5:  MOVF   78,W
05B6:  BSF    03.5
05B7:  MOVWF  56
05B8:  BCF    03.5
05B9:  MOVF   3A,W
05BA:  ANDLW  0F
05BB:  BSF    03.5
05BC:  ADDWF  56,W
05BD:  BCF    03.5
05BE:  MOVWF  3A
....................     date   = (date >> 4) * 10 + (date & 0x0F); 
05BF:  SWAPF  3B,W
05C0:  MOVWF  77
05C1:  MOVLW  0F
05C2:  ANDWF  77,F
05C3:  MOVF   77,W
05C4:  BSF    03.5
05C5:  MOVWF  57
05C6:  MOVWF  58
05C7:  MOVLW  0A
05C8:  MOVWF  59
05C9:  BCF    03.5
05CA:  CALL   556
05CB:  MOVF   78,W
05CC:  BSF    03.5
05CD:  MOVWF  56
05CE:  BCF    03.5
05CF:  MOVF   3B,W
05D0:  ANDLW  0F
05D1:  BSF    03.5
05D2:  ADDWF  56,W
05D3:  BCF    03.5
05D4:  MOVWF  3B
....................     month  = (month >> 4) * 10 + (month & 0x0F); 
05D5:  SWAPF  3C,W
05D6:  MOVWF  77
05D7:  MOVLW  0F
05D8:  ANDWF  77,F
05D9:  MOVF   77,W
05DA:  BSF    03.5
05DB:  MOVWF  57
05DC:  MOVWF  58
05DD:  MOVLW  0A
05DE:  MOVWF  59
05DF:  BCF    03.5
05E0:  CALL   556
05E1:  MOVF   78,W
05E2:  BSF    03.5
05E3:  MOVWF  56
05E4:  BCF    03.5
05E5:  MOVF   3C,W
05E6:  ANDLW  0F
05E7:  BSF    03.5
05E8:  ADDWF  56,W
05E9:  BCF    03.5
05EA:  MOVWF  3C
....................     year   = (year >> 4) * 10 + (year & 0x0F); 
05EB:  SWAPF  3D,W
05EC:  MOVWF  77
05ED:  MOVLW  0F
05EE:  ANDWF  77,F
05EF:  MOVF   77,W
05F0:  BSF    03.5
05F1:  MOVWF  57
05F2:  MOVWF  58
05F3:  MOVLW  0A
05F4:  MOVWF  59
05F5:  BCF    03.5
05F6:  CALL   556
05F7:  MOVF   78,W
05F8:  BSF    03.5
05F9:  MOVWF  56
05FA:  BCF    03.5
05FB:  MOVF   3D,W
05FC:  ANDLW  0F
05FD:  BSF    03.5
05FE:  ADDWF  56,W
05FF:  BCF    03.5
0600:  MOVWF  3D
0601:  RETURN
.................... } 
....................  
.................... void Convert_Decimal_to_BCD() 
.................... { 
....................     // x = (x / 10) << 4 + (x % 10) 
....................     second = ((second / 10) << 4) + (second % 10); 
*
0619:  MOVF   38,W
061A:  BSF    03.5
061B:  MOVWF  57
061C:  MOVLW  0A
061D:  MOVWF  58
061E:  BCF    03.5
061F:  CALL   602
0620:  SWAPF  78,W
0621:  BSF    03.5
0622:  MOVWF  56
0623:  MOVLW  F0
0624:  ANDWF  56,F
0625:  BCF    03.5
0626:  MOVF   38,W
0627:  BSF    03.5
0628:  MOVWF  57
0629:  MOVLW  0A
062A:  MOVWF  58
062B:  BCF    03.5
062C:  CALL   602
062D:  MOVF   77,W
062E:  BSF    03.5
062F:  ADDWF  56,W
0630:  BCF    03.5
0631:  MOVWF  38
....................     minute = ((minute / 10) << 4) + (minute % 10); 
0632:  MOVF   39,W
0633:  BSF    03.5
0634:  MOVWF  57
0635:  MOVLW  0A
0636:  MOVWF  58
0637:  BCF    03.5
0638:  CALL   602
0639:  SWAPF  78,W
063A:  BSF    03.5
063B:  MOVWF  56
063C:  MOVLW  F0
063D:  ANDWF  56,F
063E:  BCF    03.5
063F:  MOVF   39,W
0640:  BSF    03.5
0641:  MOVWF  57
0642:  MOVLW  0A
0643:  MOVWF  58
0644:  BCF    03.5
0645:  CALL   602
0646:  MOVF   77,W
0647:  BSF    03.5
0648:  ADDWF  56,W
0649:  BCF    03.5
064A:  MOVWF  39
....................     hour   = ((hour / 10) << 4) + (hour % 10); 
064B:  MOVF   3A,W
064C:  BSF    03.5
064D:  MOVWF  57
064E:  MOVLW  0A
064F:  MOVWF  58
0650:  BCF    03.5
0651:  CALL   602
0652:  SWAPF  78,W
0653:  BSF    03.5
0654:  MOVWF  56
0655:  MOVLW  F0
0656:  ANDWF  56,F
0657:  BCF    03.5
0658:  MOVF   3A,W
0659:  BSF    03.5
065A:  MOVWF  57
065B:  MOVLW  0A
065C:  MOVWF  58
065D:  BCF    03.5
065E:  CALL   602
065F:  MOVF   77,W
0660:  BSF    03.5
0661:  ADDWF  56,W
0662:  BCF    03.5
0663:  MOVWF  3A
....................     date   = ((date / 10) << 4) + (date % 10); 
0664:  MOVF   3B,W
0665:  BSF    03.5
0666:  MOVWF  57
0667:  MOVLW  0A
0668:  MOVWF  58
0669:  BCF    03.5
066A:  CALL   602
066B:  SWAPF  78,W
066C:  BSF    03.5
066D:  MOVWF  56
066E:  MOVLW  F0
066F:  ANDWF  56,F
0670:  BCF    03.5
0671:  MOVF   3B,W
0672:  BSF    03.5
0673:  MOVWF  57
0674:  MOVLW  0A
0675:  MOVWF  58
0676:  BCF    03.5
0677:  CALL   602
0678:  MOVF   77,W
0679:  BSF    03.5
067A:  ADDWF  56,W
067B:  BCF    03.5
067C:  MOVWF  3B
....................     month  = ((month / 10) << 4) + (month % 10); 
067D:  MOVF   3C,W
067E:  BSF    03.5
067F:  MOVWF  57
0680:  MOVLW  0A
0681:  MOVWF  58
0682:  BCF    03.5
0683:  CALL   602
0684:  SWAPF  78,W
0685:  BSF    03.5
0686:  MOVWF  56
0687:  MOVLW  F0
0688:  ANDWF  56,F
0689:  BCF    03.5
068A:  MOVF   3C,W
068B:  BSF    03.5
068C:  MOVWF  57
068D:  MOVLW  0A
068E:  MOVWF  58
068F:  BCF    03.5
0690:  CALL   602
0691:  MOVF   77,W
0692:  BSF    03.5
0693:  ADDWF  56,W
0694:  BCF    03.5
0695:  MOVWF  3C
....................     year   = ((year / 10) << 4) + (year % 10); 
0696:  MOVF   3D,W
0697:  BSF    03.5
0698:  MOVWF  57
0699:  MOVLW  0A
069A:  MOVWF  58
069B:  BCF    03.5
069C:  CALL   602
069D:  SWAPF  78,W
069E:  BSF    03.5
069F:  MOVWF  56
06A0:  MOVLW  F0
06A1:  ANDWF  56,F
06A2:  BCF    03.5
06A3:  MOVF   3D,W
06A4:  BSF    03.5
06A5:  MOVWF  57
06A6:  MOVLW  0A
06A7:  MOVWF  58
06A8:  BCF    03.5
06A9:  CALL   602
06AA:  MOVF   77,W
06AB:  BSF    03.5
06AC:  ADDWF  56,W
06AD:  BCF    03.5
06AE:  MOVWF  3D
06AF:  RETURN
.................... } 
....................  
.................... void ds1307_write(unsigned int8 address, unsigned int8 data) 
.................... { 
....................     i2c_start(); 
*
0200:  BSF    2D.4
0201:  MOVF   2D,W
0202:  BSF    03.5
0203:  MOVWF  07
0204:  NOP
0205:  BCF    03.5
0206:  BSF    2D.3
0207:  MOVF   2D,W
0208:  BSF    03.5
0209:  MOVWF  07
020A:  NOP
020B:  BCF    03.5
020C:  BCF    07.4
020D:  BCF    2D.4
020E:  MOVF   2D,W
020F:  BSF    03.5
0210:  MOVWF  07
0211:  NOP
0212:  BCF    03.5
0213:  BCF    07.3
0214:  BCF    2D.3
0215:  MOVF   2D,W
0216:  BSF    03.5
0217:  MOVWF  07
....................     i2c_write(0xD0); 
0218:  MOVLW  D0
0219:  MOVWF  58
021A:  BCF    03.5
021B:  CALL   1B6
....................     i2c_write(address); 
021C:  BSF    03.5
021D:  MOVF   56,W
021E:  MOVWF  58
021F:  BCF    03.5
0220:  CALL   1B6
....................     i2c_write(data); 
0221:  BSF    03.5
0222:  MOVF   57,W
0223:  MOVWF  58
0224:  BCF    03.5
0225:  CALL   1B6
....................     i2c_stop(); 
0226:  BCF    2D.4
0227:  MOVF   2D,W
0228:  BSF    03.5
0229:  MOVWF  07
022A:  NOP
022B:  BCF    03.5
022C:  BSF    2D.3
022D:  MOVF   2D,W
022E:  BSF    03.5
022F:  MOVWF  07
0230:  BCF    03.5
0231:  BTFSS  07.3
0232:  GOTO   231
0233:  NOP
0234:  GOTO   235
0235:  NOP
0236:  BSF    2D.4
0237:  MOVF   2D,W
0238:  BSF    03.5
0239:  MOVWF  07
023A:  NOP
023B:  BCF    03.5
023C:  RETURN
.................... } 
....................  
.................... // Hàm điều chỉnh thời gian tự động 
.................... // Giá trị thiết lập được lưu vào bộ nhớ EEPROM của pic 16f887 
.................... // Nếu thời gian nhanh hơn thực tế thì giá trị mang giá trị âm, ngược lại nếu thời gian chậm hơn thực tế thì giá trị mang giá trị dương 
.................... // Nếu thời gian đúng với thực tế thì giá trị là 0 
.................... void save_Time_Offset_to_EEPROM() { 
....................  
....................     XoaHienThi(); 
*
0B57:  BCF    0A.3
0B58:  BCF    03.5
0B59:  CALL   542
0B5A:  BSF    0A.3
....................     TIME_DELAY = 15; 
0B5B:  CLRF   42
0B5C:  MOVLW  0F
0B5D:  MOVWF  41
....................     while (1) { 
....................         if (!input(INC)) time_offset++; 
0B5E:  BSF    03.5
0B5F:  BSF    06.7
0B60:  BCF    03.5
0B61:  BTFSS  06.7
0B62:  INCF   37,F
....................         if (time_offset >= 30) time_offset = -27; 
0B63:  BTFSC  37.7
0B64:  GOTO   36B
0B65:  MOVF   37,W
0B66:  SUBLW  1D
0B67:  BTFSC  03.0
0B68:  GOTO   36B
0B69:  MOVLW  E5
0B6A:  MOVWF  37
....................         offset_sign = (time_offset < 0) ? 0 : 1; // 0: negative, 1: positive 
0B6B:  BTFSS  37.7
0B6C:  GOTO   36F
0B6D:  MOVLW  00
0B6E:  GOTO   370
0B6F:  MOVLW  01
0B70:  MOVWF  54
....................         offset_value = (unsigned int8)abs(time_offset); 
0B71:  MOVF   37,W
0B72:  BTFSS  37.7
0B73:  GOTO   376
0B74:  MOVF   37,W
0B75:  SUBLW  00
0B76:  MOVWF  55
....................         ValHienThi[13] = 0xFF; 
0B77:  MOVLW  FF
0B78:  MOVWF  50
....................         ValHienThi[14] = 0xFF; 
0B79:  MOVWF  51
....................         ValHienThi[15] = 0xFF; 
0B7A:  MOVWF  52
....................         HienThiVal_With_Delay(ValHienThi, TIME_DELAY); 
0B7B:  BSF    03.5
0B7C:  CLRF   59
0B7D:  MOVLW  43
0B7E:  MOVWF  58
0B7F:  BCF    03.5
0B80:  MOVF   42,W
0B81:  BSF    03.5
0B82:  MOVWF  5B
0B83:  BCF    03.5
0B84:  MOVF   41,W
0B85:  BSF    03.5
0B86:  MOVWF  5A
0B87:  BCF    0A.3
0B88:  BCF    03.5
0B89:  CALL   3FD
0B8A:  BSF    0A.3
....................         ValHienThi[13] = MaLed7Doan[offset_value % 10]; 
0B8B:  MOVF   55,W
0B8C:  BSF    03.5
0B8D:  MOVWF  57
0B8E:  MOVLW  0A
0B8F:  MOVWF  58
0B90:  BCF    0A.3
0B91:  BCF    03.5
0B92:  CALL   602
0B93:  BSF    0A.3
0B94:  MOVF   77,W
0B95:  BCF    0A.3
0B96:  CALL   038
0B97:  BSF    0A.3
0B98:  MOVWF  78
0B99:  MOVWF  50
....................         ValHienThi[14] = MaLed7Doan[offset_value / 10]; 
0B9A:  MOVF   55,W
0B9B:  BSF    03.5
0B9C:  MOVWF  57
0B9D:  MOVLW  0A
0B9E:  MOVWF  58
0B9F:  BCF    0A.3
0BA0:  BCF    03.5
0BA1:  CALL   602
0BA2:  BSF    0A.3
0BA3:  MOVF   78,W
0BA4:  BCF    0A.3
0BA5:  CALL   038
0BA6:  BSF    0A.3
0BA7:  MOVWF  78
0BA8:  MOVWF  51
....................         if (offset_sign == 0) // negative 
0BA9:  MOVF   54,F
0BAA:  BTFSS  03.2
0BAB:  GOTO   3AF
....................         { 
....................             ValHienThi[15] = 0xbf; // '-' character on 7-segment 
0BAC:  MOVLW  BF
0BAD:  MOVWF  52
....................         } 
0BAE:  GOTO   3B1
....................         else // positive 
....................         { 
....................             ValHienThi[15] = 0xFF; // blank 
0BAF:  MOVLW  FF
0BB0:  MOVWF  52
....................         } 
....................         HienThiVal_With_Delay(ValHienThi, TIME_DELAY); 
0BB1:  BSF    03.5
0BB2:  CLRF   59
0BB3:  MOVLW  43
0BB4:  MOVWF  58
0BB5:  BCF    03.5
0BB6:  MOVF   42,W
0BB7:  BSF    03.5
0BB8:  MOVWF  5B
0BB9:  BCF    03.5
0BBA:  MOVF   41,W
0BBB:  BSF    03.5
0BBC:  MOVWF  5A
0BBD:  BCF    0A.3
0BBE:  BCF    03.5
0BBF:  CALL   3FD
0BC0:  BSF    0A.3
....................         if (!input(MOD)) 
0BC1:  BSF    03.5
0BC2:  BSF    06.0
0BC3:  BCF    03.5
0BC4:  BTFSC  06.0
0BC5:  GOTO   3D8
....................         { 
....................             delay_ms(20); 
0BC6:  MOVLW  14
0BC7:  BSF    03.5
0BC8:  MOVWF  57
0BC9:  BCF    0A.3
0BCA:  BCF    03.5
0BCB:  CALL   285
0BCC:  BSF    0A.3
....................             if (!input(MOD)) 
0BCD:  BSF    03.5
0BCE:  BSF    06.0
0BCF:  BCF    03.5
0BD0:  BTFSC  06.0
0BD1:  GOTO   3D7
....................             { 
....................                 while (input(MOD) == 0) {} 
0BD2:  BSF    03.5
0BD3:  BSF    06.0
0BD4:  BCF    03.5
0BD5:  BTFSS  06.0
0BD6:  GOTO   3D2
....................             } 
....................             break; 
0BD7:  GOTO   3D9
....................         } 
0BD8:  GOTO   35E
....................     } 
....................     // Luu gia tri time_offset vao EEPROM 
....................     write_eeprom(254, offset_sign); 
0BD9:  MOVF   0B,W
0BDA:  MOVWF  77
0BDB:  BCF    0B.7
0BDC:  MOVLW  FE
0BDD:  BSF    03.6
0BDE:  MOVWF  0D
0BDF:  BCF    03.6
0BE0:  MOVF   54,W
0BE1:  BSF    03.6
0BE2:  MOVWF  0C
0BE3:  BSF    03.5
0BE4:  BCF    0C.7
0BE5:  BSF    0C.2
0BE6:  MOVLW  55
0BE7:  MOVWF  0D
0BE8:  MOVLW  AA
0BE9:  MOVWF  0D
0BEA:  BSF    0C.1
0BEB:  BTFSC  0C.1
0BEC:  GOTO   3EB
0BED:  BCF    0C.2
0BEE:  MOVF   77,W
0BEF:  BCF    03.5
0BF0:  BCF    03.6
0BF1:  IORWF  0B,F
....................     write_eeprom(255, offset_value); 
0BF2:  MOVF   0B,W
0BF3:  MOVWF  77
0BF4:  BCF    0B.7
0BF5:  MOVLW  FF
0BF6:  BSF    03.6
0BF7:  MOVWF  0D
0BF8:  BCF    03.6
0BF9:  MOVF   55,W
0BFA:  BSF    03.6
0BFB:  MOVWF  0C
0BFC:  BSF    03.5
0BFD:  BCF    0C.7
0BFE:  BSF    0C.2
0BFF:  MOVLW  55
0C00:  MOVWF  0D
0C01:  MOVLW  AA
0C02:  MOVWF  0D
0C03:  BSF    0C.1
0C04:  BTFSC  0C.1
0C05:  GOTO   404
0C06:  BCF    0C.2
0C07:  MOVF   77,W
0C08:  BCF    03.5
0C09:  BCF    03.6
0C0A:  IORWF  0B,F
....................     TIME_DELAY = 30; 
0C0B:  CLRF   42
0C0C:  MOVLW  1E
0C0D:  MOVWF  41
0C0E:  BSF    03.5
.................... } 
....................  
.................... void Adjust_Time_Calendar() 
.................... { 
....................     XoaHienThi(); 
*
0842:  BCF    0A.3
0843:  BCF    03.5
0844:  CALL   542
0845:  BSF    0A.3
....................     TIME_DELAY = 15; // reduce delay time for faster adjustment, thoi gian hien thi se la: 0.12 seconds 
0846:  CLRF   42
0847:  MOVLW  0F
0848:  MOVWF  41
....................     Convert_BCD_to_Decimal(); 
0849:  BCF    0A.3
084A:  CALL   57D
084B:  BSF    0A.3
....................     // Set seconds to 00 
....................     second = 0; minute = 0; hour = 0; date = 1; month = 1; year = 26; day = 1; 
084C:  CLRF   38
084D:  CLRF   39
084E:  CLRF   3A
084F:  MOVLW  01
0850:  MOVWF  3B
0851:  MOVWF  3C
0852:  MOVLW  1A
0853:  MOVWF  3D
0854:  MOVLW  01
0855:  MOVWF  3E
....................  
....................     // Adjust minutes 
....................     while (TRUE) 
....................     { 
....................         if (!input(INC)) minute++; 
0856:  BSF    03.5
0857:  BSF    06.7
0858:  BCF    03.5
0859:  BTFSS  06.7
085A:  INCF   39,F
....................         if (minute > 59) minute = 0; 
085B:  MOVF   39,W
085C:  SUBLW  3B
085D:  BTFSS  03.0
085E:  CLRF   39
....................         Convert_Decimal_to_BCD(); 
085F:  BCF    0A.3
0860:  CALL   619
0861:  BSF    0A.3
....................         ValHienThi[10] = 0xFF; 
0862:  MOVLW  FF
0863:  MOVWF  4D
....................         ValHienThi[11] = 0xFF; 
0864:  MOVWF  4E
....................         HienThiVal_With_Delay(ValHienThi, TIME_DELAY); 
0865:  BSF    03.5
0866:  CLRF   59
0867:  MOVLW  43
0868:  MOVWF  58
0869:  BCF    03.5
086A:  MOVF   42,W
086B:  BSF    03.5
086C:  MOVWF  5B
086D:  BCF    03.5
086E:  MOVF   41,W
086F:  BSF    03.5
0870:  MOVWF  5A
0871:  BCF    0A.3
0872:  BCF    03.5
0873:  CALL   3FD
0874:  BSF    0A.3
....................         ValHienThi[10] = MaLed7Doan[minute % 16] & 0x7f; // dot 
0875:  MOVF   39,W
0876:  ANDLW  0F
0877:  BCF    0A.3
0878:  CALL   038
0879:  BSF    0A.3
087A:  ANDLW  7F
087B:  MOVWF  4D
....................         ValHienThi[11] = MaLed7Doan[minute / 16]; 
087C:  SWAPF  39,W
087D:  MOVWF  77
087E:  MOVLW  0F
087F:  ANDWF  77,F
0880:  MOVF   77,W
0881:  BCF    0A.3
0882:  CALL   038
0883:  BSF    0A.3
0884:  MOVWF  78
0885:  MOVWF  4E
....................         HienThiVal_With_Delay(ValHienThi, TIME_DELAY); 
0886:  BSF    03.5
0887:  CLRF   59
0888:  MOVLW  43
0889:  MOVWF  58
088A:  BCF    03.5
088B:  MOVF   42,W
088C:  BSF    03.5
088D:  MOVWF  5B
088E:  BCF    03.5
088F:  MOVF   41,W
0890:  BSF    03.5
0891:  MOVWF  5A
0892:  BCF    0A.3
0893:  BCF    03.5
0894:  CALL   3FD
0895:  BSF    0A.3
....................         Convert_BCD_to_Decimal(); 
0896:  BCF    0A.3
0897:  CALL   57D
0898:  BSF    0A.3
....................         if (!input(MOD)) 
0899:  BSF    03.5
089A:  BSF    06.0
089B:  BCF    03.5
089C:  BTFSC  06.0
089D:  GOTO   0B0
....................         { 
....................             delay_ms(20); 
089E:  MOVLW  14
089F:  BSF    03.5
08A0:  MOVWF  57
08A1:  BCF    0A.3
08A2:  BCF    03.5
08A3:  CALL   285
08A4:  BSF    0A.3
....................             if (!input(MOD)) 
08A5:  BSF    03.5
08A6:  BSF    06.0
08A7:  BCF    03.5
08A8:  BTFSC  06.0
08A9:  GOTO   0AF
....................             { 
....................                 while (input(MOD) == 0) {} 
08AA:  BSF    03.5
08AB:  BSF    06.0
08AC:  BCF    03.5
08AD:  BTFSS  06.0
08AE:  GOTO   0AA
....................             } 
....................             break; 
08AF:  GOTO   0B1
....................         } 
08B0:  GOTO   056
....................     } 
....................  
....................     // Adjust hours 
....................     while (TRUE) 
....................     { 
....................         if (!input(INC)) hour++; 
08B1:  BSF    03.5
08B2:  BSF    06.7
08B3:  BCF    03.5
08B4:  BTFSS  06.7
08B5:  INCF   3A,F
....................         if (hour > 23) hour = 0; 
08B6:  MOVF   3A,W
08B7:  SUBLW  17
08B8:  BTFSS  03.0
08B9:  CLRF   3A
....................         Convert_Decimal_to_BCD(); 
08BA:  BCF    0A.3
08BB:  CALL   619
08BC:  BSF    0A.3
....................         ValHienThi[12] = 0xFF; 
08BD:  MOVLW  FF
08BE:  MOVWF  4F
....................         ValHienThi[13] = 0xFF; 
08BF:  MOVWF  50
....................         HienThiVal_With_Delay(ValHienThi, TIME_DELAY); 
08C0:  BSF    03.5
08C1:  CLRF   59
08C2:  MOVLW  43
08C3:  MOVWF  58
08C4:  BCF    03.5
08C5:  MOVF   42,W
08C6:  BSF    03.5
08C7:  MOVWF  5B
08C8:  BCF    03.5
08C9:  MOVF   41,W
08CA:  BSF    03.5
08CB:  MOVWF  5A
08CC:  BCF    0A.3
08CD:  BCF    03.5
08CE:  CALL   3FD
08CF:  BSF    0A.3
....................         ValHienThi[12] = MaLed7Doan[hour % 16] & 0x7f; // dot 
08D0:  MOVF   3A,W
08D1:  ANDLW  0F
08D2:  BCF    0A.3
08D3:  CALL   038
08D4:  BSF    0A.3
08D5:  ANDLW  7F
08D6:  MOVWF  4F
....................         ValHienThi[13] = MaLed7Doan[hour / 16]; 
08D7:  SWAPF  3A,W
08D8:  MOVWF  77
08D9:  MOVLW  0F
08DA:  ANDWF  77,F
08DB:  MOVF   77,W
08DC:  BCF    0A.3
08DD:  CALL   038
08DE:  BSF    0A.3
08DF:  MOVWF  78
08E0:  MOVWF  50
....................         HienThiVal_With_Delay(ValHienThi, TIME_DELAY); 
08E1:  BSF    03.5
08E2:  CLRF   59
08E3:  MOVLW  43
08E4:  MOVWF  58
08E5:  BCF    03.5
08E6:  MOVF   42,W
08E7:  BSF    03.5
08E8:  MOVWF  5B
08E9:  BCF    03.5
08EA:  MOVF   41,W
08EB:  BSF    03.5
08EC:  MOVWF  5A
08ED:  BCF    0A.3
08EE:  BCF    03.5
08EF:  CALL   3FD
08F0:  BSF    0A.3
....................         Convert_BCD_to_Decimal(); 
08F1:  BCF    0A.3
08F2:  CALL   57D
08F3:  BSF    0A.3
....................         if (!input(MOD)) 
08F4:  BSF    03.5
08F5:  BSF    06.0
08F6:  BCF    03.5
08F7:  BTFSC  06.0
08F8:  GOTO   10B
....................         { 
....................             delay_ms(20); 
08F9:  MOVLW  14
08FA:  BSF    03.5
08FB:  MOVWF  57
08FC:  BCF    0A.3
08FD:  BCF    03.5
08FE:  CALL   285
08FF:  BSF    0A.3
....................             if (!input(MOD)) 
0900:  BSF    03.5
0901:  BSF    06.0
0902:  BCF    03.5
0903:  BTFSC  06.0
0904:  GOTO   10A
....................             { 
....................                 while (input(MOD) == 0) {} 
0905:  BSF    03.5
0906:  BSF    06.0
0907:  BCF    03.5
0908:  BTFSS  06.0
0909:  GOTO   105
....................             } 
....................             break; 
090A:  GOTO   10C
....................         } 
090B:  GOTO   0B1
....................     } 
....................  
....................     // Adjust date 
....................     while (TRUE) 
....................     { 
....................         if (!input(INC)) date++; 
090C:  BSF    03.5
090D:  BSF    06.7
090E:  BCF    03.5
090F:  BTFSS  06.7
0910:  INCF   3B,F
....................         if (date > 31) date = 1; 
0911:  MOVF   3B,W
0912:  SUBLW  1F
0913:  BTFSC  03.0
0914:  GOTO   117
0915:  MOVLW  01
0916:  MOVWF  3B
....................         Convert_Decimal_to_BCD(); 
0917:  BCF    0A.3
0918:  CALL   619
0919:  BSF    0A.3
....................         ValHienThi[6] = 0xFF; 
091A:  MOVLW  FF
091B:  MOVWF  49
....................         ValHienThi[7] = 0xFF; 
091C:  MOVWF  4A
....................         HienThiVal_With_Delay(ValHienThi, TIME_DELAY); 
091D:  BSF    03.5
091E:  CLRF   59
091F:  MOVLW  43
0920:  MOVWF  58
0921:  BCF    03.5
0922:  MOVF   42,W
0923:  BSF    03.5
0924:  MOVWF  5B
0925:  BCF    03.5
0926:  MOVF   41,W
0927:  BSF    03.5
0928:  MOVWF  5A
0929:  BCF    0A.3
092A:  BCF    03.5
092B:  CALL   3FD
092C:  BSF    0A.3
....................         ValHienThi[6] = MaLed7Doan[date % 16] & 0x7f; // dot 
092D:  MOVF   3B,W
092E:  ANDLW  0F
092F:  BCF    0A.3
0930:  CALL   038
0931:  BSF    0A.3
0932:  ANDLW  7F
0933:  MOVWF  49
....................         ValHienThi[7] = MaLed7Doan[date / 16]; 
0934:  SWAPF  3B,W
0935:  MOVWF  77
0936:  MOVLW  0F
0937:  ANDWF  77,F
0938:  MOVF   77,W
0939:  BCF    0A.3
093A:  CALL   038
093B:  BSF    0A.3
093C:  MOVWF  78
093D:  MOVWF  4A
....................         HienThiVal_With_Delay(ValHienThi, TIME_DELAY); 
093E:  BSF    03.5
093F:  CLRF   59
0940:  MOVLW  43
0941:  MOVWF  58
0942:  BCF    03.5
0943:  MOVF   42,W
0944:  BSF    03.5
0945:  MOVWF  5B
0946:  BCF    03.5
0947:  MOVF   41,W
0948:  BSF    03.5
0949:  MOVWF  5A
094A:  BCF    0A.3
094B:  BCF    03.5
094C:  CALL   3FD
094D:  BSF    0A.3
....................         Convert_BCD_to_Decimal(); 
094E:  BCF    0A.3
094F:  CALL   57D
0950:  BSF    0A.3
....................         if (!input(MOD)) 
0951:  BSF    03.5
0952:  BSF    06.0
0953:  BCF    03.5
0954:  BTFSC  06.0
0955:  GOTO   168
....................         { 
....................             delay_ms(20); 
0956:  MOVLW  14
0957:  BSF    03.5
0958:  MOVWF  57
0959:  BCF    0A.3
095A:  BCF    03.5
095B:  CALL   285
095C:  BSF    0A.3
....................             if (!input(MOD)) 
095D:  BSF    03.5
095E:  BSF    06.0
095F:  BCF    03.5
0960:  BTFSC  06.0
0961:  GOTO   167
....................             { 
....................                 while (input(MOD) == 0) {} 
0962:  BSF    03.5
0963:  BSF    06.0
0964:  BCF    03.5
0965:  BTFSS  06.0
0966:  GOTO   162
....................             } 
....................             break; 
0967:  GOTO   169
....................         } 
0968:  GOTO   10C
....................     } 
....................  
....................     // Adjust month 
....................     while (TRUE) 
....................     { 
....................         if (!input(INC)) month++; 
0969:  BSF    03.5
096A:  BSF    06.7
096B:  BCF    03.5
096C:  BTFSS  06.7
096D:  INCF   3C,F
....................         if (month > 12) month = 1; 
096E:  MOVF   3C,W
096F:  SUBLW  0C
0970:  BTFSC  03.0
0971:  GOTO   174
0972:  MOVLW  01
0973:  MOVWF  3C
....................         Convert_Decimal_to_BCD(); 
0974:  BCF    0A.3
0975:  CALL   619
0976:  BSF    0A.3
....................         ValHienThi[4] = 0xFF; 
0977:  MOVLW  FF
0978:  MOVWF  47
....................         ValHienThi[5] = 0xFF; 
0979:  MOVWF  48
....................         HienThiVal_With_Delay(ValHienThi, TIME_DELAY); 
097A:  BSF    03.5
097B:  CLRF   59
097C:  MOVLW  43
097D:  MOVWF  58
097E:  BCF    03.5
097F:  MOVF   42,W
0980:  BSF    03.5
0981:  MOVWF  5B
0982:  BCF    03.5
0983:  MOVF   41,W
0984:  BSF    03.5
0985:  MOVWF  5A
0986:  BCF    0A.3
0987:  BCF    03.5
0988:  CALL   3FD
0989:  BSF    0A.3
....................         ValHienThi[4] = MaLed7Doan[month % 16] & 0x7f; // dot 
098A:  MOVF   3C,W
098B:  ANDLW  0F
098C:  BCF    0A.3
098D:  CALL   038
098E:  BSF    0A.3
098F:  ANDLW  7F
0990:  MOVWF  47
....................         ValHienThi[5] = MaLed7Doan[month / 16]; 
0991:  SWAPF  3C,W
0992:  MOVWF  77
0993:  MOVLW  0F
0994:  ANDWF  77,F
0995:  MOVF   77,W
0996:  BCF    0A.3
0997:  CALL   038
0998:  BSF    0A.3
0999:  MOVWF  78
099A:  MOVWF  48
....................         HienThiVal_With_Delay(ValHienThi, TIME_DELAY); 
099B:  BSF    03.5
099C:  CLRF   59
099D:  MOVLW  43
099E:  MOVWF  58
099F:  BCF    03.5
09A0:  MOVF   42,W
09A1:  BSF    03.5
09A2:  MOVWF  5B
09A3:  BCF    03.5
09A4:  MOVF   41,W
09A5:  BSF    03.5
09A6:  MOVWF  5A
09A7:  BCF    0A.3
09A8:  BCF    03.5
09A9:  CALL   3FD
09AA:  BSF    0A.3
....................         Convert_BCD_to_Decimal(); 
09AB:  BCF    0A.3
09AC:  CALL   57D
09AD:  BSF    0A.3
....................         if (!input(MOD)) 
09AE:  BSF    03.5
09AF:  BSF    06.0
09B0:  BCF    03.5
09B1:  BTFSC  06.0
09B2:  GOTO   1C5
....................         { 
....................             delay_ms(20); 
09B3:  MOVLW  14
09B4:  BSF    03.5
09B5:  MOVWF  57
09B6:  BCF    0A.3
09B7:  BCF    03.5
09B8:  CALL   285
09B9:  BSF    0A.3
....................             if (!input(MOD)) 
09BA:  BSF    03.5
09BB:  BSF    06.0
09BC:  BCF    03.5
09BD:  BTFSC  06.0
09BE:  GOTO   1C4
....................             { 
....................                 while (input(MOD) == 0) {} 
09BF:  BSF    03.5
09C0:  BSF    06.0
09C1:  BCF    03.5
09C2:  BTFSS  06.0
09C3:  GOTO   1BF
....................             } 
....................             break; 
09C4:  GOTO   1C6
....................         } 
09C5:  GOTO   169
....................     } 
....................  
....................     // Adjust year 
....................     while (TRUE) 
....................     { 
....................         if (!input(INC)) year++; 
09C6:  BSF    03.5
09C7:  BSF    06.7
09C8:  BCF    03.5
09C9:  BTFSS  06.7
09CA:  INCF   3D,F
....................         if (year > 50) year = 0; 
09CB:  MOVF   3D,W
09CC:  SUBLW  32
09CD:  BTFSS  03.0
09CE:  CLRF   3D
....................         Convert_Decimal_to_BCD(); 
09CF:  BCF    0A.3
09D0:  CALL   619
09D1:  BSF    0A.3
....................         ValHienThi[0] = 0xFF; 
09D2:  MOVLW  FF
09D3:  MOVWF  43
....................         ValHienThi[1] = 0xFF; 
09D4:  MOVWF  44
....................         HienThiVal_With_Delay(ValHienThi, TIME_DELAY); 
09D5:  BSF    03.5
09D6:  CLRF   59
09D7:  MOVLW  43
09D8:  MOVWF  58
09D9:  BCF    03.5
09DA:  MOVF   42,W
09DB:  BSF    03.5
09DC:  MOVWF  5B
09DD:  BCF    03.5
09DE:  MOVF   41,W
09DF:  BSF    03.5
09E0:  MOVWF  5A
09E1:  BCF    0A.3
09E2:  BCF    03.5
09E3:  CALL   3FD
09E4:  BSF    0A.3
....................         ValHienThi[0] = MaLed7Doan[year % 16]; 
09E5:  MOVF   3D,W
09E6:  ANDLW  0F
09E7:  BCF    0A.3
09E8:  CALL   038
09E9:  BSF    0A.3
09EA:  MOVWF  78
09EB:  MOVWF  43
....................         ValHienThi[1] = MaLed7Doan[year / 16]; 
09EC:  SWAPF  3D,W
09ED:  MOVWF  77
09EE:  MOVLW  0F
09EF:  ANDWF  77,F
09F0:  MOVF   77,W
09F1:  BCF    0A.3
09F2:  CALL   038
09F3:  BSF    0A.3
09F4:  MOVWF  78
09F5:  MOVWF  44
....................         HienThiVal_With_Delay(ValHienThi, TIME_DELAY); 
09F6:  BSF    03.5
09F7:  CLRF   59
09F8:  MOVLW  43
09F9:  MOVWF  58
09FA:  BCF    03.5
09FB:  MOVF   42,W
09FC:  BSF    03.5
09FD:  MOVWF  5B
09FE:  BCF    03.5
09FF:  MOVF   41,W
0A00:  BSF    03.5
0A01:  MOVWF  5A
0A02:  BCF    0A.3
0A03:  BCF    03.5
0A04:  CALL   3FD
0A05:  BSF    0A.3
....................         Convert_BCD_to_Decimal(); 
0A06:  BCF    0A.3
0A07:  CALL   57D
0A08:  BSF    0A.3
....................         if (!input(MOD)) 
0A09:  BSF    03.5
0A0A:  BSF    06.0
0A0B:  BCF    03.5
0A0C:  BTFSC  06.0
0A0D:  GOTO   220
....................         { 
....................             delay_ms(20); 
0A0E:  MOVLW  14
0A0F:  BSF    03.5
0A10:  MOVWF  57
0A11:  BCF    0A.3
0A12:  BCF    03.5
0A13:  CALL   285
0A14:  BSF    0A.3
....................             if (!input(MOD)) 
0A15:  BSF    03.5
0A16:  BSF    06.0
0A17:  BCF    03.5
0A18:  BTFSC  06.0
0A19:  GOTO   21F
....................             { 
....................                 while (input(MOD) == 0) {} 
0A1A:  BSF    03.5
0A1B:  BSF    06.0
0A1C:  BCF    03.5
0A1D:  BTFSS  06.0
0A1E:  GOTO   21A
....................             } 
....................             break; 
0A1F:  GOTO   221
....................         } 
0A20:  GOTO   1C6
....................     } 
....................  
....................     // Adjust day of week 
....................     while (TRUE) 
....................     { 
....................         if (!input(INC)) day++; 
0A21:  BSF    03.5
0A22:  BSF    06.7
0A23:  BCF    03.5
0A24:  BTFSS  06.7
0A25:  INCF   3E,F
....................         if (day > 7) day = 1; 
0A26:  MOVF   3E,W
0A27:  SUBLW  07
0A28:  BTFSC  03.0
0A29:  GOTO   22C
0A2A:  MOVLW  01
0A2B:  MOVWF  3E
....................         Convert_Decimal_to_BCD(); 
0A2C:  BCF    0A.3
0A2D:  CALL   619
0A2E:  BSF    0A.3
....................         ValHienThi[2] = 0xFF; 
0A2F:  MOVLW  FF
0A30:  MOVWF  45
....................         ValHienThi[3] = 0xFF; 
0A31:  MOVWF  46
....................         HienThiVal_With_Delay(ValHienThi, TIME_DELAY); 
0A32:  BSF    03.5
0A33:  CLRF   59
0A34:  MOVLW  43
0A35:  MOVWF  58
0A36:  BCF    03.5
0A37:  MOVF   42,W
0A38:  BSF    03.5
0A39:  MOVWF  5B
0A3A:  BCF    03.5
0A3B:  MOVF   41,W
0A3C:  BSF    03.5
0A3D:  MOVWF  5A
0A3E:  BCF    0A.3
0A3F:  BCF    03.5
0A40:  CALL   3FD
0A41:  BSF    0A.3
....................         if (day == 1) 
0A42:  DECFSZ 3E,W
0A43:  GOTO   249
....................         { 
....................             ValHienThi[3] = 0xa7; 
0A44:  MOVLW  A7
0A45:  MOVWF  46
....................             ValHienThi[2] = 0xab; 
0A46:  MOVLW  AB
0A47:  MOVWF  45
....................         } 
0A48:  GOTO   251
....................         else 
....................         { 
....................             ValHienThi[3] = MaLed7Doan[0]; 
0A49:  MOVLW  C0
0A4A:  MOVWF  46
....................             ValHienThi[2] = MaLed7Doan[day]; 
0A4B:  MOVF   3E,W
0A4C:  BCF    0A.3
0A4D:  CALL   038
0A4E:  BSF    0A.3
0A4F:  MOVWF  78
0A50:  MOVWF  45
....................         } 
....................         HienThiVal_With_Delay(ValHienThi, TIME_DELAY); 
0A51:  BSF    03.5
0A52:  CLRF   59
0A53:  MOVLW  43
0A54:  MOVWF  58
0A55:  BCF    03.5
0A56:  MOVF   42,W
0A57:  BSF    03.5
0A58:  MOVWF  5B
0A59:  BCF    03.5
0A5A:  MOVF   41,W
0A5B:  BSF    03.5
0A5C:  MOVWF  5A
0A5D:  BCF    0A.3
0A5E:  BCF    03.5
0A5F:  CALL   3FD
0A60:  BSF    0A.3
....................         Convert_BCD_to_Decimal(); 
0A61:  BCF    0A.3
0A62:  CALL   57D
0A63:  BSF    0A.3
....................         if (!input(MOD)) 
0A64:  BSF    03.5
0A65:  BSF    06.0
0A66:  BCF    03.5
0A67:  BTFSC  06.0
0A68:  GOTO   27B
....................         { 
....................             delay_ms(20); 
0A69:  MOVLW  14
0A6A:  BSF    03.5
0A6B:  MOVWF  57
0A6C:  BCF    0A.3
0A6D:  BCF    03.5
0A6E:  CALL   285
0A6F:  BSF    0A.3
....................             if (!input(MOD)) 
0A70:  BSF    03.5
0A71:  BSF    06.0
0A72:  BCF    03.5
0A73:  BTFSC  06.0
0A74:  GOTO   27A
....................             { 
....................                 while (input(MOD) == 0) {} 
0A75:  BSF    03.5
0A76:  BSF    06.0
0A77:  BCF    03.5
0A78:  BTFSS  06.0
0A79:  GOTO   275
....................             } 
....................             break; 
0A7A:  GOTO   27C
....................         } 
0A7B:  GOTO   221
....................     } 
....................  
....................     // Lựa chọn lưu cài đặt hay không 
....................     XoaHienThi(); 
0A7C:  BCF    0A.3
0A7D:  CALL   542
0A7E:  BSF    0A.3
....................     while (TRUE) { 
....................         if (!input(INC)) flag_save = ~flag_save; 
0A7F:  BSF    03.5
0A80:  BSF    06.7
0A81:  BCF    03.5
0A82:  BTFSC  06.7
0A83:  GOTO   286
0A84:  MOVLW  08
0A85:  XORWF  33,F
....................         ValHienThi[11] = 0xFF; 
0A86:  MOVLW  FF
0A87:  MOVWF  4E
....................         ValHienThi[10] = 0xff; 
0A88:  MOVWF  4D
....................         ValHienThi[9] = 0xff; 
0A89:  MOVWF  4C
....................         ValHienThi[8] = 0xff; 
0A8A:  MOVWF  4B
....................         ValHienThi[0] = 0xff; 
0A8B:  MOVWF  43
....................         HienThiVal_With_Delay(ValHienThi, TIME_DELAY); 
0A8C:  BSF    03.5
0A8D:  CLRF   59
0A8E:  MOVLW  43
0A8F:  MOVWF  58
0A90:  BCF    03.5
0A91:  MOVF   42,W
0A92:  BSF    03.5
0A93:  MOVWF  5B
0A94:  BCF    03.5
0A95:  MOVF   41,W
0A96:  BSF    03.5
0A97:  MOVWF  5A
0A98:  BCF    0A.3
0A99:  BCF    03.5
0A9A:  CALL   3FD
0A9B:  BSF    0A.3
....................         ValHienThi[11] = 0x92; 
0A9C:  MOVLW  92
0A9D:  MOVWF  4E
....................         ValHienThi[10] = 0x88; 
0A9E:  MOVLW  88
0A9F:  MOVWF  4D
....................         ValHienThi[9] = 0xc1; 
0AA0:  MOVLW  C1
0AA1:  MOVWF  4C
....................         ValHienThi[8] = 0x86; 
0AA2:  MOVLW  86
0AA3:  MOVWF  4B
....................         if (flag_save) ValHienThi[0] = 0x91; 
0AA4:  BTFSS  33.3
0AA5:  GOTO   2A9
0AA6:  MOVLW  91
0AA7:  MOVWF  43
0AA8:  GOTO   2AB
....................         else ValHienThi[0] = 0xc8; 
0AA9:  MOVLW  C8
0AAA:  MOVWF  43
....................         HienThiVal_With_Delay(ValHienThi, TIME_DELAY); 
0AAB:  BSF    03.5
0AAC:  CLRF   59
0AAD:  MOVLW  43
0AAE:  MOVWF  58
0AAF:  BCF    03.5
0AB0:  MOVF   42,W
0AB1:  BSF    03.5
0AB2:  MOVWF  5B
0AB3:  BCF    03.5
0AB4:  MOVF   41,W
0AB5:  BSF    03.5
0AB6:  MOVWF  5A
0AB7:  BCF    0A.3
0AB8:  BCF    03.5
0AB9:  CALL   3FD
0ABA:  BSF    0A.3
....................         if (!input(MOD)) 
0ABB:  BSF    03.5
0ABC:  BSF    06.0
0ABD:  BCF    03.5
0ABE:  BTFSC  06.0
0ABF:  GOTO   2D2
....................         { 
....................             delay_ms(20); 
0AC0:  MOVLW  14
0AC1:  BSF    03.5
0AC2:  MOVWF  57
0AC3:  BCF    0A.3
0AC4:  BCF    03.5
0AC5:  CALL   285
0AC6:  BSF    0A.3
....................             if (!input(MOD)) 
0AC7:  BSF    03.5
0AC8:  BSF    06.0
0AC9:  BCF    03.5
0ACA:  BTFSC  06.0
0ACB:  GOTO   2D1
....................             { 
....................                 while (input(MOD) == 0) {} 
0ACC:  BSF    03.5
0ACD:  BSF    06.0
0ACE:  BCF    03.5
0ACF:  BTFSS  06.0
0AD0:  GOTO   2CC
....................             } 
....................             break; 
0AD1:  GOTO   2D3
....................         } 
0AD2:  GOTO   27F
....................     } 
....................  
....................     if (!flag_save) return; 
0AD3:  BTFSS  33.3
0AD4:  GOTO   341
....................  
....................     if (minute == 0) { 
0AD5:  MOVF   39,F
0AD6:  BTFSS  03.2
0AD7:  GOTO   2E3
....................         minute_auto = 59; 
0AD8:  MOVLW  3B
0AD9:  MOVWF  3F
....................         hour_auto = (hour == 0) ? 23 : hour - 1; 
0ADA:  MOVF   3A,F
0ADB:  BTFSS  03.2
0ADC:  GOTO   2DF
0ADD:  MOVLW  17
0ADE:  GOTO   2E1
0ADF:  MOVLW  01
0AE0:  SUBWF  3A,W
0AE1:  MOVWF  40
....................     } else { 
0AE2:  GOTO   2E8
....................         minute_auto = minute - 1; 
0AE3:  MOVLW  01
0AE4:  SUBWF  39,W
0AE5:  MOVWF  3F
....................         hour_auto = hour; 
0AE6:  MOVF   3A,W
0AE7:  MOVWF  40
....................     } 
....................  
....................     Convert_Decimal_to_BCD(); 
0AE8:  BCF    0A.3
0AE9:  CALL   619
0AEA:  BSF    0A.3
....................     // Write time and calendar to DS1307 
....................     ds1307_write(0x00, second); 
0AEB:  BSF    03.5
0AEC:  CLRF   56
0AED:  BCF    03.5
0AEE:  MOVF   38,W
0AEF:  BSF    03.5
0AF0:  MOVWF  57
0AF1:  BCF    0A.3
0AF2:  BCF    03.5
0AF3:  CALL   200
0AF4:  BSF    0A.3
....................     ds1307_write(0x01, minute); 
0AF5:  MOVLW  01
0AF6:  BSF    03.5
0AF7:  MOVWF  56
0AF8:  BCF    03.5
0AF9:  MOVF   39,W
0AFA:  BSF    03.5
0AFB:  MOVWF  57
0AFC:  BCF    0A.3
0AFD:  BCF    03.5
0AFE:  CALL   200
0AFF:  BSF    0A.3
....................     ds1307_write(0x02, hour); 
0B00:  MOVLW  02
0B01:  BSF    03.5
0B02:  MOVWF  56
0B03:  BCF    03.5
0B04:  MOVF   3A,W
0B05:  BSF    03.5
0B06:  MOVWF  57
0B07:  BCF    0A.3
0B08:  BCF    03.5
0B09:  CALL   200
0B0A:  BSF    0A.3
....................     ds1307_write(0x03, day); 
0B0B:  MOVLW  03
0B0C:  BSF    03.5
0B0D:  MOVWF  56
0B0E:  BCF    03.5
0B0F:  MOVF   3E,W
0B10:  BSF    03.5
0B11:  MOVWF  57
0B12:  BCF    0A.3
0B13:  BCF    03.5
0B14:  CALL   200
0B15:  BSF    0A.3
....................     ds1307_write(0x04, date); 
0B16:  MOVLW  04
0B17:  BSF    03.5
0B18:  MOVWF  56
0B19:  BCF    03.5
0B1A:  MOVF   3B,W
0B1B:  BSF    03.5
0B1C:  MOVWF  57
0B1D:  BCF    0A.3
0B1E:  BCF    03.5
0B1F:  CALL   200
0B20:  BSF    0A.3
....................     ds1307_write(0x05, month); 
0B21:  MOVLW  05
0B22:  BSF    03.5
0B23:  MOVWF  56
0B24:  BCF    03.5
0B25:  MOVF   3C,W
0B26:  BSF    03.5
0B27:  MOVWF  57
0B28:  BCF    0A.3
0B29:  BCF    03.5
0B2A:  CALL   200
0B2B:  BSF    0A.3
....................     ds1307_write(0x06, year); 
0B2C:  MOVLW  06
0B2D:  BSF    03.5
0B2E:  MOVWF  56
0B2F:  BCF    03.5
0B30:  MOVF   3D,W
0B31:  BSF    03.5
0B32:  MOVWF  57
0B33:  BCF    0A.3
0B34:  BCF    03.5
0B35:  CALL   200
0B36:  BSF    0A.3
....................     TIME_DELAY = 30; // restore delay time 
0B37:  CLRF   42
0B38:  MOVLW  1E
0B39:  MOVWF  41
....................     delay_ms(200); 
0B3A:  MOVLW  C8
0B3B:  BSF    03.5
0B3C:  MOVWF  57
0B3D:  BCF    0A.3
0B3E:  BCF    03.5
0B3F:  CALL   285
0B40:  BSF    0A.3
0B41:  BSF    03.5
....................  
.................... } 
....................  
.................... // Thiết lập thời gian và lịch ban đầu cho DS1307, thời gian bắt đầu từ 00:00:00, ngày 01/01/2026, Thứ cn 
.................... void setup_Time_Calendar() 
.................... { 
....................     second = 0x00; 
*
023D:  CLRF   38
....................     minute = 0x00; 
023E:  CLRF   39
....................     hour   = 0x00; 
023F:  CLRF   3A
....................     day    = 0x01; 
0240:  MOVLW  01
0241:  MOVWF  3E
....................     date   = 0x01; 
0242:  MOVWF  3B
....................     month  = 0x01; 
0243:  MOVWF  3C
....................     year   = 0x26; 
0244:  MOVLW  26
0245:  MOVWF  3D
....................  
....................     ds1307_write(0x00, second); 
0246:  BSF    03.5
0247:  CLRF   56
0248:  BCF    03.5
0249:  MOVF   38,W
024A:  BSF    03.5
024B:  MOVWF  57
024C:  BCF    03.5
024D:  CALL   200
....................     ds1307_write(0x01, minute); 
024E:  MOVLW  01
024F:  BSF    03.5
0250:  MOVWF  56
0251:  BCF    03.5
0252:  MOVF   39,W
0253:  BSF    03.5
0254:  MOVWF  57
0255:  BCF    03.5
0256:  CALL   200
....................     ds1307_write(0x02, hour); 
0257:  MOVLW  02
0258:  BSF    03.5
0259:  MOVWF  56
025A:  BCF    03.5
025B:  MOVF   3A,W
025C:  BSF    03.5
025D:  MOVWF  57
025E:  BCF    03.5
025F:  CALL   200
....................     ds1307_write(0x03, day); 
0260:  MOVLW  03
0261:  BSF    03.5
0262:  MOVWF  56
0263:  BCF    03.5
0264:  MOVF   3E,W
0265:  BSF    03.5
0266:  MOVWF  57
0267:  BCF    03.5
0268:  CALL   200
....................     ds1307_write(0x04, date); 
0269:  MOVLW  04
026A:  BSF    03.5
026B:  MOVWF  56
026C:  BCF    03.5
026D:  MOVF   3B,W
026E:  BSF    03.5
026F:  MOVWF  57
0270:  BCF    03.5
0271:  CALL   200
....................     ds1307_write(0x05, month); 
0272:  MOVLW  05
0273:  BSF    03.5
0274:  MOVWF  56
0275:  BCF    03.5
0276:  MOVF   3C,W
0277:  BSF    03.5
0278:  MOVWF  57
0279:  BCF    03.5
027A:  CALL   200
....................     ds1307_write(0x06, year); 
027B:  MOVLW  06
027C:  BSF    03.5
027D:  MOVWF  56
027E:  BCF    03.5
027F:  MOVF   3D,W
0280:  BSF    03.5
0281:  MOVWF  57
0282:  BCF    03.5
0283:  CALL   200
0284:  RETURN
.................... } 
....................  
.................... // --- ISR Timer0 (CCS syntax) --- 
.................... #INT_TIMER0 
.................... void timer0_isr(void) 
.................... { 
....................    // reload timer để có khoảng 1 ms tiếp theo 
....................    set_timer0(TMR0_PRELOAD); 
*
006E:  MOVLW  06
006F:  MOVWF  01
....................  
....................    // tăng bộ đếm ms 
....................    ms_count++; 
0070:  INCF   34,F
0071:  BTFSC  03.2
0072:  INCF   35,F
....................  
....................    // clear flag: trong CCS thường không bắt buộc vì runtime xử lý, 
....................    // nhưng ta đảm bảo bằng cách gọi clear_interrupt 
....................    clear_interrupt(INT_TIMER0); 
0073:  BCF    0B.2
.................... } 
....................  
0074:  BCF    0B.2
0075:  BCF    0A.3
0076:  BCF    0A.4
0077:  GOTO   021
.................... #INT_TIMER1 
.................... void timer1_isr(void) 
.................... { 
....................     /* reload timer để có ~1 ms tick */ 
....................     set_timer1(TMR1_PRELOAD); 
*
0109:  CLRF   0E
010A:  MOVLW  FF
010B:  MOVWF  0F
010C:  MOVLW  06
010D:  MOVWF  0E
....................  
....................     /* đếm ms; mỗi 200 ms làm 1 bước */ 
....................     ms_count2++; 
010E:  INCF   36,F
....................     if (ms_count2 < 200) { 
010F:  MOVF   36,W
0110:  SUBLW  C7
0111:  BTFSS  03.0
0112:  GOTO   115
....................         clear_interrupt(INT_TIMER1); 
0113:  BCF    0C.0
....................         return; 
0114:  GOTO   193
....................     } 
....................     ms_count2 = 0; 
0115:  CLRF   36
....................  
....................     /* chỉ chạy khi flag_led bật */ 
....................     if (flag_led != 1) { 
0116:  BTFSC  33.2
0117:  GOTO   11A
....................         clear_interrupt(INT_TIMER1); 
0118:  BCF    0C.0
....................         return; 
0119:  GOTO   193
....................     } 
....................  
....................     /* khởi tạo lần đầu */ 
....................     if (!cascade_started8) { 
011A:  BTFSC  33.0
011B:  GOTO   134
....................         y8 = 0xFF;              // tất cả LED ON 
011C:  MOVLW  FF
011D:  MOVWF  2E
....................         save_mask8 = 0xFE;     // bắt đầu giống chương tham khảo 
011E:  MOVLW  FE
011F:  MOVWF  30
....................         outer_i8 = 0; 
0120:  CLRF   31
....................         inner_k8 = 0; 
0121:  CLRF   32
....................         run_mask8 = (unsigned int8)(1 << outer_i8); 
0122:  MOVLW  01
0123:  MOVWF  2F
0124:  MOVF   31,W
0125:  MOVWF  78
0126:  BTFSC  03.2
0127:  GOTO   12C
0128:  BCF    03.0
0129:  RLF    2F,F
012A:  DECFSZ 78,F
012B:  GOTO   128
....................         output8led(y8); 
012C:  MOVF   2E,W
012D:  BSF    03.6
012E:  MOVWF  15
012F:  BCF    03.6
0130:  CALL   078
....................         cascade_started8 = 1; 
0131:  BSF    33.0
....................         clear_interrupt(INT_TIMER1); 
0132:  BCF    0C.0
....................         return; 
0133:  GOTO   193
....................     } 
....................  
....................     /* thực hiện 1 bước trong state-machine */ 
....................     if (outer_i8 < 8) { 
0134:  MOVF   31,W
0135:  SUBLW  07
0136:  BTFSS  03.0
0137:  GOTO   17D
....................         if (inner_k8 == 0) { 
0138:  MOVF   32,F
0139:  BTFSS  03.2
013A:  GOTO   145
....................             run_mask8 = (unsigned int8)(1 << outer_i8); 
013B:  MOVLW  01
013C:  MOVWF  2F
013D:  MOVF   31,W
013E:  MOVWF  78
013F:  BTFSC  03.2
0140:  GOTO   145
0141:  BCF    03.0
0142:  RLF    2F,F
0143:  DECFSZ 78,F
0144:  GOTO   141
....................         } 
....................         /* dịch phải 1 lần (theo logic chương tham khảo) */ 
....................         run_mask8 = run_mask8 >> 1; 
0145:  BCF    03.0
0146:  RRF    2F,F
....................         y8 = run_mask8 | save_mask8; 
0147:  MOVF   2F,W
0148:  IORWF  30,W
0149:  MOVWF  2E
....................         output8led(y8); 
014A:  MOVF   2E,W
014B:  BSF    03.6
014C:  MOVWF  15
014D:  BCF    03.6
014E:  CALL   078
....................  
....................         inner_k8++; 
014F:  INCF   32,F
....................  
....................         /* nếu vòng trong hoàn thành (k chạy 0..outer_i) thì cập nhật save và qua outer tiếp theo */ 
....................         if (inner_k8 > outer_i8) { 
0150:  MOVF   32,W
0151:  SUBWF  31,W
0152:  BTFSC  03.0
0153:  GOTO   17C
....................             save_mask8 = (unsigned int8)(save_mask8 << 1); 
0154:  BCF    03.0
0155:  RLF    30,F
....................             outer_i8++; 
0156:  INCF   31,F
....................             inner_k8 = 0; 
0157:  CLRF   32
....................  
....................             if (outer_i8 >= 8) { 
0158:  MOVF   31,W
0159:  SUBLW  07
015A:  BTFSC  03.0
015B:  GOTO   172
....................                 /* khi xong hết 8 cột, hiển thị tất cả LED rồi reset để lặp lại */ 
....................                 y8 = 0xFF; 
015C:  MOVLW  FF
015D:  MOVWF  2E
....................                 output8led(y8); 
015E:  MOVF   2E,W
015F:  BSF    03.6
0160:  MOVWF  15
0161:  BCF    03.6
0162:  CALL   078
....................                 save_mask8 = 0xFE; 
0163:  MOVLW  FE
0164:  MOVWF  30
....................                 outer_i8 = 0; 
0165:  CLRF   31
....................                 inner_k8 = 0; 
0166:  CLRF   32
....................                 run_mask8 = (unsigned int8)(1 << outer_i8); 
0167:  MOVLW  01
0168:  MOVWF  2F
0169:  MOVF   31,W
016A:  MOVWF  78
016B:  BTFSC  03.2
016C:  GOTO   171
016D:  BCF    03.0
016E:  RLF    2F,F
016F:  DECFSZ 78,F
0170:  GOTO   16D
....................             } else { 
0171:  GOTO   17C
....................                 /* chuẩn bị run_mask cho outer mới */ 
....................                 run_mask8 = (unsigned int8)(1 << outer_i8); 
0172:  MOVLW  01
0173:  MOVWF  2F
0174:  MOVF   31,W
0175:  MOVWF  78
0176:  BTFSC  03.2
0177:  GOTO   17C
0178:  BCF    03.0
0179:  RLF    2F,F
017A:  DECFSZ 78,F
017B:  GOTO   178
....................             } 
....................         } 
....................     } else { 
017C:  GOTO   192
....................         /* phòng vệ: reset nếu outer_i8 vượt quá */ 
....................         outer_i8 = 0; 
017D:  CLRF   31
....................         inner_k8 = 0; 
017E:  CLRF   32
....................         save_mask8 = 0xFE; 
017F:  MOVLW  FE
0180:  MOVWF  30
....................         run_mask8 = (unsigned int8)(1 << outer_i8); 
0181:  MOVLW  01
0182:  MOVWF  2F
0183:  MOVF   31,W
0184:  MOVWF  78
0185:  BTFSC  03.2
0186:  GOTO   18B
0187:  BCF    03.0
0188:  RLF    2F,F
0189:  DECFSZ 78,F
018A:  GOTO   187
....................         y8 = 0xFF; 
018B:  MOVLW  FF
018C:  MOVWF  2E
....................         output8led(y8); 
018D:  MOVF   2E,W
018E:  BSF    03.6
018F:  MOVWF  15
0190:  BCF    03.6
0191:  CALL   078
....................     } 
....................  
....................     clear_interrupt(INT_TIMER1); 
0192:  BCF    0C.0
0193:  BCF    0C.0
0194:  BCF    0A.3
0195:  BCF    0A.4
0196:  GOTO   021
.................... } 
....................  
.................... signed int8 ConvertUnsignedToSigned(unsigned int8 value) { 
*
0299:  BSF    03.5
029A:  MOVF   54,W
029B:  MOVWF  55
....................     signed int8 res = (signed int8)value; 
....................     return res; 
029C:  MOVF   55,W
029D:  MOVWF  78
029E:  BCF    03.5
029F:  RETURN
.................... } 
....................  
.................... void main() 
*
0DFF:  MOVF   03,W
0E00:  ANDLW  1F
0E01:  MOVWF  03
0E02:  MOVLW  71
0E03:  BSF    03.5
0E04:  MOVWF  0F
0E05:  MOVF   0F,W
0E06:  MOVLW  FF
0E07:  BCF    03.5
0E08:  MOVWF  2D
0E09:  MOVLW  FF
0E0A:  MOVWF  2E
0E0B:  CLRF   2F
0E0C:  MOVLW  FE
0E0D:  MOVWF  30
0E0E:  CLRF   31
0E0F:  CLRF   32
0E10:  BCF    33.0
0E11:  CLRF   35
0E12:  CLRF   34
0E13:  CLRF   36
0E14:  CLRF   37
0E15:  MOVLW  0C
0E16:  MOVWF  3F
0E17:  MOVLW  0C
0E18:  MOVWF  40
0E19:  CLRF   42
0E1A:  MOVLW  1E
0E1B:  MOVWF  41
0E1C:  CLRF   53
0E1D:  BCF    33.1
0E1E:  BCF    33.2
0E1F:  BCF    33.3
0E20:  CLRF   54
0E21:  CLRF   55
0E22:  BSF    03.5
0E23:  BSF    03.6
0E24:  MOVF   09,W
0E25:  ANDLW  C0
0E26:  MOVWF  09
0E27:  BCF    03.6
0E28:  BCF    1F.4
0E29:  BCF    1F.5
0E2A:  MOVLW  00
0E2B:  BSF    03.6
0E2C:  MOVWF  08
0E2D:  BCF    03.5
0E2E:  CLRF   07
0E2F:  CLRF   08
0E30:  CLRF   09
0E31:  BCF    03.7
.................... { 
....................     set_tris_a(0x00); 
*
0E91:  MOVLW  00
0E92:  MOVWF  05
....................     set_tris_b(0xFF); 
0E93:  MOVLW  FF
0E94:  MOVWF  06
....................     set_tris_d(0x00); 
0E95:  MOVLW  00
0E96:  MOVWF  08
....................  
....................     output_low(SER); 
0E97:  BCF    08.0
0E98:  BCF    03.5
0E99:  BCF    08.0
....................     output_low(SCK); 
0E9A:  BSF    03.5
0E9B:  BCF    08.2
0E9C:  BCF    03.5
0E9D:  BCF    08.2
....................     output_high(RCK);  // mac dinh high 
0E9E:  BSF    03.5
0E9F:  BCF    08.4
0EA0:  BCF    03.5
0EA1:  BSF    08.4
....................  
....................     output_high(LED0); 
0EA2:  BSF    03.5
0EA3:  BCF    05.0
0EA4:  BCF    03.5
0EA5:  BSF    05.0
....................     output_low(LED1); 
0EA6:  BSF    03.5
0EA7:  BCF    05.1
0EA8:  BCF    03.5
0EA9:  BCF    05.1
....................     output_low(LED2); 
0EAA:  BSF    03.5
0EAB:  BCF    05.2
0EAC:  BCF    03.5
0EAD:  BCF    05.2
....................     output_low(LED3); 
0EAE:  BSF    03.5
0EAF:  BCF    05.3
0EB0:  BCF    03.5
0EB1:  BCF    05.3
....................     output_low(LED4); 
0EB2:  BSF    03.5
0EB3:  BCF    05.4
0EB4:  BCF    03.5
0EB5:  BCF    05.4
....................     output_low(LED5); 
0EB6:  BSF    03.5
0EB7:  BCF    05.5
0EB8:  BCF    03.5
0EB9:  BCF    05.5
....................     output_low(LED6); 
0EBA:  BSF    03.5
0EBB:  BCF    05.6
0EBC:  BCF    03.5
0EBD:  BCF    05.6
....................     output_high(LED7); 
0EBE:  BSF    03.5
0EBF:  BCF    05.7
0EC0:  BCF    03.5
0EC1:  BSF    05.7
....................     output_low(S_COI); 
0EC2:  BSF    03.5
0EC3:  BCF    08.6
0EC4:  BCF    03.5
0EC5:  BCF    08.6
....................  
....................     timer0_init(); 
0EC6:  BCF    0A.3
0EC7:  GOTO   197
0EC8:  BSF    0A.3
....................     timer1_init(); 
0EC9:  BCF    0A.3
0ECA:  GOTO   1A7
0ECB:  BSF    0A.3
....................  
....................     setup_Time_Calendar(); 
0ECC:  BCF    0A.3
0ECD:  CALL   23D
0ECE:  BSF    0A.3
....................     // Chờ bộ dao động ổn định 
....................     delay_ms(20000); 
0ECF:  MOVLW  50
0ED0:  BSF    03.5
0ED1:  MOVWF  54
0ED2:  MOVLW  FA
0ED3:  MOVWF  57
0ED4:  BCF    0A.3
0ED5:  BCF    03.5
0ED6:  CALL   285
0ED7:  BSF    0A.3
0ED8:  BSF    03.5
0ED9:  DECFSZ 54,F
0EDA:  GOTO   6D2
....................     setup_Time_Calendar(); 
0EDB:  BCF    0A.3
0EDC:  BCF    03.5
0EDD:  CALL   23D
0EDE:  BSF    0A.3
....................  
....................     // Doc gia tri time_offset tu EEPROM      signed int8 time_offset = 0; 
....................     unsigned int8 offset_sign = read_eeprom(254); // 0: negative, 1: positive 
....................     unsigned int8 offset_value = read_eeprom(255); 
0EDF:  MOVLW  FE
0EE0:  BSF    03.6
0EE1:  MOVWF  0D
0EE2:  BSF    03.5
0EE3:  BCF    0C.7
0EE4:  BSF    0C.0
0EE5:  BCF    03.5
0EE6:  MOVF   0C,W
0EE7:  BSF    03.5
0EE8:  BCF    03.6
0EE9:  MOVWF  52
0EEA:  MOVLW  FF
0EEB:  BCF    03.5
0EEC:  BSF    03.6
0EED:  MOVWF  0D
0EEE:  BSF    03.5
0EEF:  BCF    0C.7
0EF0:  BSF    0C.0
0EF1:  BCF    03.5
0EF2:  MOVF   0C,W
0EF3:  BSF    03.5
0EF4:  BCF    03.6
0EF5:  MOVWF  53
....................     // Cap nhat lai gia tri time_offset tu EEPROM vao bien time_offset 
....................     if (offset_sign == 0) { // offset âm, nhanh hon thuc te 
0EF6:  MOVF   52,F
0EF7:  BTFSS  03.2
0EF8:  GOTO   705
....................         time_offset = ConvertUnsignedToSigned(offset_value); 
0EF9:  MOVF   53,W
0EFA:  MOVWF  54
0EFB:  BCF    0A.3
0EFC:  BCF    03.5
0EFD:  CALL   299
0EFE:  BSF    0A.3
0EFF:  MOVF   78,W
0F00:  MOVWF  37
....................         time_offset = 0 - time_offset; 
0F01:  COMF   37,F
0F02:  INCF   37,F
....................     } else { 
0F03:  GOTO   70D
0F04:  BSF    03.5
....................         time_offset = ConvertUnsignedToSigned(offset_value); // offset duong, cham hon thuc te 
0F05:  MOVF   53,W
0F06:  MOVWF  54
0F07:  BCF    0A.3
0F08:  BCF    03.5
0F09:  CALL   299
0F0A:  BSF    0A.3
0F0B:  MOVF   78,W
0F0C:  MOVWF  37
....................     } 
....................  
....................     enable_interrupts(GLOBAL); 
0F0D:  MOVLW  C0
0F0E:  IORWF  0B,F
....................  
....................     while (TRUE) 
....................     { 
....................         HienThiVal_With_Delay_number(TIME_DELAY, NUMBER); 
0F0F:  MOVF   42,W
0F10:  BSF    03.5
0F11:  MOVWF  55
0F12:  BCF    03.5
0F13:  MOVF   41,W
0F14:  BSF    03.5
0F15:  MOVWF  54
0F16:  MOVLW  01
0F17:  MOVWF  56
0F18:  BCF    0A.3
0F19:  BCF    03.5
0F1A:  GOTO   507
0F1B:  BSF    0A.3
....................         pos++; 
0F1C:  INCF   53,F
....................         if (pos > (sizeof(vmsg_pattern) - 8)) 
0F1D:  MOVF   53,W
0F1E:  SUBLW  2A
0F1F:  BTFSS  03.0
....................         { 
....................             pos = 0; 
0F20:  CLRF   53
....................         } 
....................  
....................         mod_selection(); 
0F21:  GOTO   000
....................         Adjust_Time_Calendar_Auto(); 
0F22:  BCF    0A.3
0F23:  GOTO   6B0
0F24:  BSF    0A.3
....................         if (flag_coi == 1) bao_thoi_gian(); 
0F25:  BTFSC  33.1
0F26:  GOTO   4A9
0F27:  GOTO   70F
....................  
....................     } 
.................... } 
0F28:  SLEEP

Configuration Fuses:
   Word  1: 2FE4   INTRC_IO NOWDT PUT MCLR NOPROTECT NOCPD BROWNOUT IESO FCMEN NOLVP NODEBUG
   Word  2: 3FFF   BORV40 NOWRT

ROM data:
0021FE: 0000 0015 
